
Matrix_Clock.elf:     file format elf32-avr

Sections:
Idx Name          Size      VMA       LMA       File off  Algn
  0 .text         00001898  00000000  00000000  00000074  2**1
                  CONTENTS, ALLOC, LOAD, READONLY, CODE
  1 .bss          00000015  00800100  00800100  0000190c  2**0
                  ALLOC
  2 .comment      00000030  00000000  00000000  0000190c  2**0
                  CONTENTS, READONLY

Disassembly of section .text:

00000000 <__vectors>:
       0:	ae c1       	rjmp	.+860    	; 0x35e <__ctors_end>
       2:	bd c1       	rjmp	.+890    	; 0x37e <__bad_interrupt>
       4:	bc c1       	rjmp	.+888    	; 0x37e <__bad_interrupt>
       6:	68 cb       	rjmp	.-2352   	; 0xfffff6d8 <__eeprom_end+0xff7ef6d8>
       8:	71 cb       	rjmp	.-2334   	; 0xfffff6ec <__eeprom_end+0xff7ef6ec>
       a:	7a cb       	rjmp	.-2316   	; 0xfffff700 <__eeprom_end+0xff7ef700>
       c:	b8 c1       	rjmp	.+880    	; 0x37e <__bad_interrupt>
       e:	35 cb       	rjmp	.-2454   	; 0xfffff67a <__eeprom_end+0xff7ef67a>
      10:	b6 c1       	rjmp	.+876    	; 0x37e <__bad_interrupt>
      12:	b5 c1       	rjmp	.+874    	; 0x37e <__bad_interrupt>
      14:	b4 c1       	rjmp	.+872    	; 0x37e <__bad_interrupt>
      16:	b3 c1       	rjmp	.+870    	; 0x37e <__bad_interrupt>
      18:	b2 c1       	rjmp	.+868    	; 0x37e <__bad_interrupt>
      1a:	b1 c1       	rjmp	.+866    	; 0x37e <__bad_interrupt>
      1c:	24 cb       	rjmp	.-2488   	; 0xfffff666 <__eeprom_end+0xff7ef666>
      1e:	af c1       	rjmp	.+862    	; 0x37e <__bad_interrupt>
      20:	ae c1       	rjmp	.+860    	; 0x37e <__bad_interrupt>
      22:	ad c1       	rjmp	.+858    	; 0x37e <__bad_interrupt>
      24:	ac c1       	rjmp	.+856    	; 0x37e <__bad_interrupt>
      26:	ab c1       	rjmp	.+854    	; 0x37e <__bad_interrupt>
      28:	aa c1       	rjmp	.+852    	; 0x37e <__bad_interrupt>
      2a:	4c cb       	rjmp	.-2408   	; 0xfffff6c4 <__eeprom_end+0xff7ef6c4>
      2c:	a8 c1       	rjmp	.+848    	; 0x37e <__bad_interrupt>
      2e:	a7 c1       	rjmp	.+846    	; 0x37e <__bad_interrupt>
      30:	a6 c1       	rjmp	.+844    	; 0x37e <__bad_interrupt>
      32:	a5 c1       	rjmp	.+842    	; 0x37e <__bad_interrupt>

00000034 <__trampolines_end>:
      34:	45 72       	andi	r20, 0x25	; 37
      36:	72 6f       	ori	r23, 0xF2	; 242
      38:	72 20       	and	r7, r2
      3a:	6e 6f       	ori	r22, 0xFE	; 254
      3c:	20 74       	andi	r18, 0x40	; 64
      3e:	65 78       	andi	r22, 0x85	; 133
      40:	74 2f       	mov	r23, r20
	...

00000044 <__c.2016>:
      44:	5a 61 70 72 61 73 7a 61 6d 79 20 64 6f 20 73 74     Zapraszamy do st
      54:	6f 69 73 6b 61 7f 00 00                             oiska...

0000005c <__c.2013>:
      5c:	50 72 6f 77 61 64 7a 82 07 63 79 20 64 72 4b 6c     Prowadz..cy drKl
      6c:	61 75 73 00 00                                      aus..

00000071 <__c.2010>:
      71:	57 79 88 77 69 65 74 6c 61 63 7a 20 57 69 64 6d     Wy.wietlacz Widm
      81:	6f 77 79 20 78 37 00 00                             owy x7..

00000089 <__c.2006>:
      89:	57 69 74 61 6d 79 20 6e 61 20 52 6f 62 6f 64 61     Witamy na Roboda
      99:	79 20 32 30 31 37 00 00                             y 2017..

000000a1 <string_table>:
      a1:	23 01 05 01 e7 00 c9 00 ab 00                       #.........

000000ab <string_5>:
      ab:	45 72 72 6f 72 20 6e 6f 20 74 65 78 74 2f 00 00     Error no text/..
	...

000000c9 <string_4>:
      c9:	5a 61 70 72 61 73 7a 61 6d 79 20 64 6f 20 73 74     Zapraszamy do st
      d9:	6f 69 73 6b 61 7f 00 00 00 00 00 00 00 00           oiska.........

000000e7 <string_3>:
      e7:	50 72 6f 77 61 64 7a 82 07 63 79 20 64 72 4b 6c     Prowadz..cy drKl
      f7:	61 75 73 00 00 00 00 00 00 00 00 00 00 00           aus...........

00000105 <string_2>:
     105:	57 79 88 77 69 65 74 6c 61 63 7a 20 57 69 64 6d     Wy.wietlacz Widm
     115:	6f 77 79 20 78 37 00 00 00 00 00 00 00 00           owy x7........

00000123 <string_1>:
     123:	57 69 74 61 6d 79 20 6e 61 20 52 6f 62 6f 64 61     Witamy na Roboda
     133:	79 20 32 30 31 37 00 00 00 00 00 00 00 00           y 2017........

00000141 <uiAnimations>:
     141:	88 e5 9f e5 88 00 00 82 e5 9f e5 82 00 00 80 e9     ................
     151:	9f e9 80 00 00 c8 a5 9f a5 c8 00 00 c2 a5 9f a5     ................
     161:	c2 00 00 94 b6 ff ff ff be 9c 80 a2 e3 f7 ff be     ................
     171:	9c                                                  .

00000172 <uiAlLength>:
     172:	05 05 05 05 05 05 05 05 03 05 05 04 05 05 05 05     ................
     182:	05 05 05 05 05 05 05 05 05 05 05 05 05 05 05 05     ................
     192:	05 05 05 05 04 04 04 04 04 04 05 04 03 04 04 03     ................
     1a2:	05 04 04 04 04 05 04 04 04 05 05 05 04 05 05 01     ................
     1b2:	03 02 05 01 02 01 05 03 05 04 05 03 04 04 04 05     ................
     1c2:	05 00                                               ..

000001c4 <uiAlphabet>:
     1c4:	7e 09 09 09 7e 7f 49 49 49 36 3e 41 41 41 22 7f     ~...~.III6>AAA".
     1d4:	41 41 22 1c 7f 49 49 49 41 7f 09 09 09 01 3e 41     AA"..IIIA.....>A
     1e4:	49 49 3a 7f 08 08 08 7f 00 41 7f 41 00 30 40 41     II:......A.A.0@A
     1f4:	3f 01 7f 08 14 22 41 7f 40 40 40 40 7f 02 0c 02     ?...."A.@@@@....
     204:	7f 7f 04 08 10 7f 3e 41 41 41 3e 7f 09 09 09 06     ......>AAA>.....
     214:	3e 41 61 41 be 7f 09 19 29 46 26 49 49 49 32 01     >AaA....)F&III2.
     224:	01 7f 01 01 3f 40 40 40 3f 1f 20 40 20 1f 7f 20     ....?@@@?. @ .. 
     234:	10 20 7f 63 14 08 14 63 03 04 78 04 03 61 51 49     . .c...c..x..aQI
     244:	45 43 3e 51 49 45 3e 44 42 7f 40 40 62 51 49 49     EC>QIE>DB.@@bQII
     254:	46 22 41 49 49 36 18 14 12 7f 10 27 45 45 45 39     F"AII6.....'EEE9
     264:	3c 4a 49 49 30 01 71 09 05 03 36 49 49 49 36 06     <JII0.q...6III6.
     274:	49 49 29 1e 20 54 54 78 00 7f 44 44 38 00 38 44     II). TTx..DD8.8D
     284:	44 44 00 38 44 44 7f 00 38 54 54 58 00 04 7e 05     DD.8DD..8TTX..~.
     294:	01 00 98 a4 a4 78 00 7f 04 04 78 00 00 44 7d 40     .....x....x..D}@
     2a4:	00 40 80 84 7d 00 7f 10 28 44 00 00 41 7f 40 00     .@..}...(D..A.@.
     2b4:	7c 04 7c 04 78 7c 04 04 78 00 38 44 44 38 00 fc     |.|.x|..x.8DD8..
     2c4:	24 24 18 00 18 24 24 fc 00 04 78 04 04 08 48 54     $$...$$...x...HT
     2d4:	54 24 00 04 3f 44 40 00 3c 40 40 7c 00 0c 30 40     T$..?D@.<@@|..0@
     2e4:	30 0c 3c 40 30 40 3c 44 28 10 28 44 1c a0 a0 7c     0.<@0@<D(.(D...|
     2f4:	00 44 64 54 4c 44 00 24 00 7e 81 00 00 40 00 00     .DdTLD.$.~...@..
     304:	00 80 70 00 00 00 5f 00 00 00 02 01 51 09 06 00     ..p..._.....Q...
     314:	00 00 00 00 00 44 00 00 00 00 00 44 00 00 22 08     .....D.....D..".
     324:	08 41 3e 00 08 08 08 00 20 54 54 78 80 38 46 45     .A>..... TTx.8FE
     334:	44 00 38 54 54 58 80 00 51 7f 44 00 7c 06 05 78     D.8TTX..Q.D.|..x
     344:	00 38 46 45 38 00 48 56 55 24 00 44 64 55 4c 44     .8FE8.HVU$.DdULD
     354:	44 64 56 4d 44 00 00 00 00 00                       DdVMD.....

0000035e <__ctors_end>:
     35e:	11 24       	eor	r1, r1
     360:	1f be       	out	0x3f, r1	; 63
     362:	cf ef       	ldi	r28, 0xFF	; 255
     364:	d4 e0       	ldi	r29, 0x04	; 4
     366:	de bf       	out	0x3e, r29	; 62
     368:	cd bf       	out	0x3d, r28	; 61

0000036a <__do_clear_bss>:
     36a:	21 e0       	ldi	r18, 0x01	; 1
     36c:	a0 e0       	ldi	r26, 0x00	; 0
     36e:	b1 e0       	ldi	r27, 0x01	; 1
     370:	01 c0       	rjmp	.+2      	; 0x374 <.do_clear_bss_start>

00000372 <.do_clear_bss_loop>:
     372:	1d 92       	st	X+, r1

00000374 <.do_clear_bss_start>:
     374:	a5 31       	cpi	r26, 0x15	; 21
     376:	b2 07       	cpc	r27, r18
     378:	e1 f7       	brne	.-8      	; 0x372 <.do_clear_bss_loop>
     37a:	f6 d8       	rcall	.-3604   	; 0xfffff568 <__eeprom_end+0xff7ef568>
     37c:	8b ca       	rjmp	.-2794   	; 0xfffff894 <__eeprom_end+0xff7ef894>

0000037e <__bad_interrupt>:
     37e:	40 ce       	rjmp	.-896    	; 0x0 <__vectors>

00000380 <LoadSignByte>:
     380:	65 30       	cpi	r22, 0x05	; 5
     382:	b0 f5       	brcc	.+108    	; 0x3f0 <LoadSignByte+0x70>
     384:	9f e9       	ldi	r25, 0x9F	; 159
     386:	98 0f       	add	r25, r24
     388:	9a 31       	cpi	r25, 0x1A	; 26
     38a:	18 f1       	brcs	.+70     	; 0x3d2 <LoadSignByte+0x52>
     38c:	9f eb       	ldi	r25, 0xBF	; 191
     38e:	98 0f       	add	r25, r24
     390:	9a 31       	cpi	r25, 0x1A	; 26
     392:	98 f1       	brcs	.+102    	; 0x3fa <LoadSignByte+0x7a>
     394:	90 ed       	ldi	r25, 0xD0	; 208
     396:	98 0f       	add	r25, r24
     398:	9a 30       	cpi	r25, 0x0A	; 10
     39a:	60 f1       	brcs	.+88     	; 0x3f4 <LoadSignByte+0x74>
     39c:	80 32       	cpi	r24, 0x20	; 32
     39e:	81 f1       	breq	.+96     	; 0x400 <LoadSignByte+0x80>
     3a0:	8e 32       	cpi	r24, 0x2E	; 46
     3a2:	89 f1       	breq	.+98     	; 0x406 <LoadSignByte+0x86>
     3a4:	8c 32       	cpi	r24, 0x2C	; 44
     3a6:	91 f1       	breq	.+100    	; 0x40c <LoadSignByte+0x8c>
     3a8:	81 32       	cpi	r24, 0x21	; 33
     3aa:	99 f1       	breq	.+102    	; 0x412 <LoadSignByte+0x92>
     3ac:	8f 33       	cpi	r24, 0x3F	; 63
     3ae:	a1 f1       	breq	.+104    	; 0x418 <LoadSignByte+0x98>
     3b0:	8a 33       	cpi	r24, 0x3A	; 58
     3b2:	a9 f1       	breq	.+106    	; 0x41e <LoadSignByte+0x9e>
     3b4:	80 38       	cpi	r24, 0x80	; 128
     3b6:	b1 f1       	breq	.+108    	; 0x424 <LoadSignByte+0xa4>
     3b8:	8f 37       	cpi	r24, 0x7F	; 127
     3ba:	b9 f1       	breq	.+110    	; 0x42a <LoadSignByte+0xaa>
     3bc:	8d 32       	cpi	r24, 0x2D	; 45
     3be:	c1 f1       	breq	.+112    	; 0x430 <LoadSignByte+0xb0>
     3c0:	9e e7       	ldi	r25, 0x7E	; 126
     3c2:	98 0f       	add	r25, r24
     3c4:	99 30       	cpi	r25, 0x09	; 9
     3c6:	b8 f1       	brcs	.+110    	; 0x436 <LoadSignByte+0xb6>
     3c8:	87 30       	cpi	r24, 0x07	; 7
     3ca:	c1 f1       	breq	.+112    	; 0x43c <LoadSignByte+0xbc>
     3cc:	8e e3       	ldi	r24, 0x3E	; 62
     3ce:	90 e0       	ldi	r25, 0x00	; 0
     3d0:	02 c0       	rjmp	.+4      	; 0x3d6 <LoadSignByte+0x56>
     3d2:	8d 53       	subi	r24, 0x3D	; 61
     3d4:	90 e0       	ldi	r25, 0x00	; 0
     3d6:	fc 01       	movw	r30, r24
     3d8:	ee 0f       	add	r30, r30
     3da:	ff 1f       	adc	r31, r31
     3dc:	ee 0f       	add	r30, r30
     3de:	ff 1f       	adc	r31, r31
     3e0:	e8 0f       	add	r30, r24
     3e2:	f9 1f       	adc	r31, r25
     3e4:	e6 0f       	add	r30, r22
     3e6:	f1 1d       	adc	r31, r1
     3e8:	ec 53       	subi	r30, 0x3C	; 60
     3ea:	fe 4f       	sbci	r31, 0xFE	; 254
     3ec:	84 91       	lpm	r24, Z
     3ee:	08 95       	ret
     3f0:	80 e0       	ldi	r24, 0x00	; 0
     3f2:	08 95       	ret
     3f4:	86 51       	subi	r24, 0x16	; 22
     3f6:	90 e0       	ldi	r25, 0x00	; 0
     3f8:	ee cf       	rjmp	.-36     	; 0x3d6 <LoadSignByte+0x56>
     3fa:	89 2f       	mov	r24, r25
     3fc:	90 e0       	ldi	r25, 0x00	; 0
     3fe:	eb cf       	rjmp	.-42     	; 0x3d6 <LoadSignByte+0x56>
     400:	83 e4       	ldi	r24, 0x43	; 67
     402:	90 e0       	ldi	r25, 0x00	; 0
     404:	e8 cf       	rjmp	.-48     	; 0x3d6 <LoadSignByte+0x56>
     406:	8f e3       	ldi	r24, 0x3F	; 63
     408:	90 e0       	ldi	r25, 0x00	; 0
     40a:	e5 cf       	rjmp	.-54     	; 0x3d6 <LoadSignByte+0x56>
     40c:	80 e4       	ldi	r24, 0x40	; 64
     40e:	90 e0       	ldi	r25, 0x00	; 0
     410:	e2 cf       	rjmp	.-60     	; 0x3d6 <LoadSignByte+0x56>
     412:	81 e4       	ldi	r24, 0x41	; 65
     414:	90 e0       	ldi	r25, 0x00	; 0
     416:	df cf       	rjmp	.-66     	; 0x3d6 <LoadSignByte+0x56>
     418:	82 e4       	ldi	r24, 0x42	; 66
     41a:	90 e0       	ldi	r25, 0x00	; 0
     41c:	dc cf       	rjmp	.-72     	; 0x3d6 <LoadSignByte+0x56>
     41e:	84 e4       	ldi	r24, 0x44	; 68
     420:	90 e0       	ldi	r25, 0x00	; 0
     422:	d9 cf       	rjmp	.-78     	; 0x3d6 <LoadSignByte+0x56>
     424:	85 e4       	ldi	r24, 0x45	; 69
     426:	90 e0       	ldi	r25, 0x00	; 0
     428:	d6 cf       	rjmp	.-84     	; 0x3d6 <LoadSignByte+0x56>
     42a:	86 e4       	ldi	r24, 0x46	; 70
     42c:	90 e0       	ldi	r25, 0x00	; 0
     42e:	d3 cf       	rjmp	.-90     	; 0x3d6 <LoadSignByte+0x56>
     430:	87 e4       	ldi	r24, 0x47	; 71
     432:	90 e0       	ldi	r25, 0x00	; 0
     434:	d0 cf       	rjmp	.-96     	; 0x3d6 <LoadSignByte+0x56>
     436:	8a 53       	subi	r24, 0x3A	; 58
     438:	90 e0       	ldi	r25, 0x00	; 0
     43a:	cd cf       	rjmp	.-102    	; 0x3d6 <LoadSignByte+0x56>
     43c:	81 e5       	ldi	r24, 0x51	; 81
     43e:	90 e0       	ldi	r25, 0x00	; 0
     440:	ca cf       	rjmp	.-108    	; 0x3d6 <LoadSignByte+0x56>

00000442 <LoadSignLength>:
     442:	9f e9       	ldi	r25, 0x9F	; 159
     444:	98 0f       	add	r25, r24
     446:	9a 31       	cpi	r25, 0x1A	; 26
     448:	a0 f1       	brcs	.+104    	; 0x4b2 <LoadSignLength+0x70>
     44a:	ef eb       	ldi	r30, 0xBF	; 191
     44c:	e8 0f       	add	r30, r24
     44e:	ea 31       	cpi	r30, 0x1A	; 26
     450:	58 f1       	brcs	.+86     	; 0x4a8 <LoadSignLength+0x66>
     452:	90 ed       	ldi	r25, 0xD0	; 208
     454:	98 0f       	add	r25, r24
     456:	9a 30       	cpi	r25, 0x0A	; 10
     458:	08 f4       	brcc	.+2      	; 0x45c <LoadSignLength+0x1a>
     45a:	38 c0       	rjmp	.+112    	; 0x4cc <LoadSignLength+0x8a>
     45c:	80 32       	cpi	r24, 0x20	; 32
     45e:	81 f1       	breq	.+96     	; 0x4c0 <LoadSignLength+0x7e>
     460:	8e 32       	cpi	r24, 0x2E	; 46
     462:	09 f4       	brne	.+2      	; 0x466 <LoadSignLength+0x24>
     464:	3a c0       	rjmp	.+116    	; 0x4da <LoadSignLength+0x98>
     466:	8c 32       	cpi	r24, 0x2C	; 44
     468:	09 f4       	brne	.+2      	; 0x46c <LoadSignLength+0x2a>
     46a:	3a c0       	rjmp	.+116    	; 0x4e0 <LoadSignLength+0x9e>
     46c:	81 32       	cpi	r24, 0x21	; 33
     46e:	09 f4       	brne	.+2      	; 0x472 <LoadSignLength+0x30>
     470:	3a c0       	rjmp	.+116    	; 0x4e6 <LoadSignLength+0xa4>
     472:	8f 33       	cpi	r24, 0x3F	; 63
     474:	09 f4       	brne	.+2      	; 0x478 <LoadSignLength+0x36>
     476:	3a c0       	rjmp	.+116    	; 0x4ec <LoadSignLength+0xaa>
     478:	8a 33       	cpi	r24, 0x3A	; 58
     47a:	09 f4       	brne	.+2      	; 0x47e <LoadSignLength+0x3c>
     47c:	3a c0       	rjmp	.+116    	; 0x4f2 <LoadSignLength+0xb0>
     47e:	80 38       	cpi	r24, 0x80	; 128
     480:	09 f4       	brne	.+2      	; 0x484 <LoadSignLength+0x42>
     482:	3a c0       	rjmp	.+116    	; 0x4f8 <LoadSignLength+0xb6>
     484:	8f 37       	cpi	r24, 0x7F	; 127
     486:	09 f4       	brne	.+2      	; 0x48a <LoadSignLength+0x48>
     488:	3a c0       	rjmp	.+116    	; 0x4fe <LoadSignLength+0xbc>
     48a:	8d 32       	cpi	r24, 0x2D	; 45
     48c:	09 f4       	brne	.+2      	; 0x490 <LoadSignLength+0x4e>
     48e:	3a c0       	rjmp	.+116    	; 0x504 <__stack+0x5>
     490:	9e e7       	ldi	r25, 0x7E	; 126
     492:	98 0f       	add	r25, r24
     494:	99 30       	cpi	r25, 0x09	; 9
     496:	08 f4       	brcc	.+2      	; 0x49a <LoadSignLength+0x58>
     498:	38 c0       	rjmp	.+112    	; 0x50a <__stack+0xb>
     49a:	87 30       	cpi	r24, 0x07	; 7
     49c:	09 f4       	brne	.+2      	; 0x4a0 <LoadSignLength+0x5e>
     49e:	37 c0       	rjmp	.+110    	; 0x50e <__stack+0xf>
     4a0:	8e e3       	ldi	r24, 0x3E	; 62
     4a2:	e8 2f       	mov	r30, r24
     4a4:	f0 e0       	ldi	r31, 0x00	; 0
     4a6:	01 c0       	rjmp	.+2      	; 0x4aa <LoadSignLength+0x68>
     4a8:	f0 e0       	ldi	r31, 0x00	; 0
     4aa:	ee 58       	subi	r30, 0x8E	; 142
     4ac:	fe 4f       	sbci	r31, 0xFE	; 254
     4ae:	84 91       	lpm	r24, Z
     4b0:	08 95       	ret
     4b2:	8d 53       	subi	r24, 0x3D	; 61
     4b4:	e8 2f       	mov	r30, r24
     4b6:	f0 e0       	ldi	r31, 0x00	; 0
     4b8:	ee 58       	subi	r30, 0x8E	; 142
     4ba:	fe 4f       	sbci	r31, 0xFE	; 254
     4bc:	84 91       	lpm	r24, Z
     4be:	08 95       	ret
     4c0:	e3 e4       	ldi	r30, 0x43	; 67
     4c2:	f0 e0       	ldi	r31, 0x00	; 0
     4c4:	ee 58       	subi	r30, 0x8E	; 142
     4c6:	fe 4f       	sbci	r31, 0xFE	; 254
     4c8:	84 91       	lpm	r24, Z
     4ca:	08 95       	ret
     4cc:	86 51       	subi	r24, 0x16	; 22
     4ce:	e8 2f       	mov	r30, r24
     4d0:	f0 e0       	ldi	r31, 0x00	; 0
     4d2:	ee 58       	subi	r30, 0x8E	; 142
     4d4:	fe 4f       	sbci	r31, 0xFE	; 254
     4d6:	84 91       	lpm	r24, Z
     4d8:	08 95       	ret
     4da:	ef e3       	ldi	r30, 0x3F	; 63
     4dc:	f0 e0       	ldi	r31, 0x00	; 0
     4de:	e5 cf       	rjmp	.-54     	; 0x4aa <LoadSignLength+0x68>
     4e0:	e0 e4       	ldi	r30, 0x40	; 64
     4e2:	f0 e0       	ldi	r31, 0x00	; 0
     4e4:	e2 cf       	rjmp	.-60     	; 0x4aa <LoadSignLength+0x68>
     4e6:	e1 e4       	ldi	r30, 0x41	; 65
     4e8:	f0 e0       	ldi	r31, 0x00	; 0
     4ea:	df cf       	rjmp	.-66     	; 0x4aa <LoadSignLength+0x68>
     4ec:	e2 e4       	ldi	r30, 0x42	; 66
     4ee:	f0 e0       	ldi	r31, 0x00	; 0
     4f0:	dc cf       	rjmp	.-72     	; 0x4aa <LoadSignLength+0x68>
     4f2:	e4 e4       	ldi	r30, 0x44	; 68
     4f4:	f0 e0       	ldi	r31, 0x00	; 0
     4f6:	d9 cf       	rjmp	.-78     	; 0x4aa <LoadSignLength+0x68>
     4f8:	e5 e4       	ldi	r30, 0x45	; 69
     4fa:	f0 e0       	ldi	r31, 0x00	; 0
     4fc:	d6 cf       	rjmp	.-84     	; 0x4aa <LoadSignLength+0x68>
     4fe:	e6 e4       	ldi	r30, 0x46	; 70
     500:	f0 e0       	ldi	r31, 0x00	; 0
     502:	d3 cf       	rjmp	.-90     	; 0x4aa <LoadSignLength+0x68>
     504:	e7 e4       	ldi	r30, 0x47	; 71
     506:	f0 e0       	ldi	r31, 0x00	; 0
     508:	d0 cf       	rjmp	.-96     	; 0x4aa <LoadSignLength+0x68>
     50a:	8a 53       	subi	r24, 0x3A	; 58
     50c:	ca cf       	rjmp	.-108    	; 0x4a2 <LoadSignLength+0x60>
     50e:	81 e5       	ldi	r24, 0x51	; 81
     510:	c8 cf       	rjmp	.-112    	; 0x4a2 <LoadSignLength+0x60>

00000512 <LoadAnimationsByte>:
     512:	66 30       	cpi	r22, 0x06	; 6
     514:	10 f0       	brcs	.+4      	; 0x51a <LoadAnimationsByte+0x8>
     516:	87 30       	cpi	r24, 0x07	; 7
     518:	58 f4       	brcc	.+22     	; 0x530 <LoadAnimationsByte+0x1e>
     51a:	e6 2f       	mov	r30, r22
     51c:	f0 e0       	ldi	r31, 0x00	; 0
     51e:	97 e0       	ldi	r25, 0x07	; 7
     520:	89 9f       	mul	r24, r25
     522:	e0 0d       	add	r30, r0
     524:	f1 1d       	adc	r31, r1
     526:	11 24       	eor	r1, r1
     528:	ef 5b       	subi	r30, 0xBF	; 191
     52a:	fe 4f       	sbci	r31, 0xFE	; 254
     52c:	84 91       	lpm	r24, Z
     52e:	08 95       	ret
     530:	80 e0       	ldi	r24, 0x00	; 0
     532:	08 95       	ret

00000534 <LoadText>:
     534:	61 30       	cpi	r22, 0x01	; 1
     536:	09 f4       	brne	.+2      	; 0x53a <LoadText+0x6>
     538:	7d c0       	rjmp	.+250    	; 0x634 <LoadText+0x100>
     53a:	08 f4       	brcc	.+2      	; 0x53e <LoadText+0xa>
     53c:	5f c0       	rjmp	.+190    	; 0x5fc <LoadText+0xc8>
     53e:	62 30       	cpi	r22, 0x02	; 2
     540:	29 f1       	breq	.+74     	; 0x58c <LoadText+0x58>
     542:	63 30       	cpi	r22, 0x03	; 3
     544:	09 f0       	breq	.+2      	; 0x548 <LoadText+0x14>
     546:	3e c0       	rjmp	.+124    	; 0x5c4 <LoadText+0x90>
     548:	44 e4       	ldi	r20, 0x44	; 68
     54a:	50 e0       	ldi	r21, 0x00	; 0
     54c:	fa 01       	movw	r30, r20
     54e:	24 91       	lpm	r18, Z
     550:	22 23       	and	r18, r18
     552:	09 f4       	brne	.+2      	; 0x556 <LoadText+0x22>
     554:	8a c0       	rjmp	.+276    	; 0x66a <LoadText+0x136>
     556:	24 e4       	ldi	r18, 0x44	; 68
     558:	30 e0       	ldi	r19, 0x00	; 0
     55a:	60 e0       	ldi	r22, 0x00	; 0
     55c:	01 c0       	rjmp	.+2      	; 0x560 <LoadText+0x2c>
     55e:	67 2f       	mov	r22, r23
     560:	71 e0       	ldi	r23, 0x01	; 1
     562:	76 0f       	add	r23, r22
     564:	2f 5f       	subi	r18, 0xFF	; 255
     566:	3f 4f       	sbci	r19, 0xFF	; 255
     568:	fa 01       	movw	r30, r20
     56a:	44 91       	lpm	r20, Z
     56c:	fc 01       	movw	r30, r24
     56e:	e6 0f       	add	r30, r22
     570:	f1 1d       	adc	r31, r1
     572:	40 83       	st	Z, r20
     574:	a9 01       	movw	r20, r18
     576:	f9 01       	movw	r30, r18
     578:	64 91       	lpm	r22, Z
     57a:	61 11       	cpse	r22, r1
     57c:	f0 cf       	rjmp	.-32     	; 0x55e <LoadText+0x2a>
     57e:	27 2f       	mov	r18, r23
     580:	30 e0       	ldi	r19, 0x00	; 0
     582:	fc 01       	movw	r30, r24
     584:	e2 0f       	add	r30, r18
     586:	f3 1f       	adc	r31, r19
     588:	10 82       	st	Z, r1
     58a:	08 95       	ret
     58c:	4c e5       	ldi	r20, 0x5C	; 92
     58e:	50 e0       	ldi	r21, 0x00	; 0
     590:	fa 01       	movw	r30, r20
     592:	24 91       	lpm	r18, Z
     594:	22 23       	and	r18, r18
     596:	09 f4       	brne	.+2      	; 0x59a <LoadText+0x66>
     598:	68 c0       	rjmp	.+208    	; 0x66a <LoadText+0x136>
     59a:	2c e5       	ldi	r18, 0x5C	; 92
     59c:	30 e0       	ldi	r19, 0x00	; 0
     59e:	60 e0       	ldi	r22, 0x00	; 0
     5a0:	01 c0       	rjmp	.+2      	; 0x5a4 <LoadText+0x70>
     5a2:	67 2f       	mov	r22, r23
     5a4:	71 e0       	ldi	r23, 0x01	; 1
     5a6:	76 0f       	add	r23, r22
     5a8:	2f 5f       	subi	r18, 0xFF	; 255
     5aa:	3f 4f       	sbci	r19, 0xFF	; 255
     5ac:	fa 01       	movw	r30, r20
     5ae:	44 91       	lpm	r20, Z
     5b0:	fc 01       	movw	r30, r24
     5b2:	e6 0f       	add	r30, r22
     5b4:	f1 1d       	adc	r31, r1
     5b6:	40 83       	st	Z, r20
     5b8:	a9 01       	movw	r20, r18
     5ba:	f9 01       	movw	r30, r18
     5bc:	64 91       	lpm	r22, Z
     5be:	61 11       	cpse	r22, r1
     5c0:	f0 cf       	rjmp	.-32     	; 0x5a2 <LoadText+0x6e>
     5c2:	dd cf       	rjmp	.-70     	; 0x57e <LoadText+0x4a>
     5c4:	44 e3       	ldi	r20, 0x34	; 52
     5c6:	50 e0       	ldi	r21, 0x00	; 0
     5c8:	fa 01       	movw	r30, r20
     5ca:	24 91       	lpm	r18, Z
     5cc:	22 23       	and	r18, r18
     5ce:	09 f4       	brne	.+2      	; 0x5d2 <LoadText+0x9e>
     5d0:	4c c0       	rjmp	.+152    	; 0x66a <LoadText+0x136>
     5d2:	24 e3       	ldi	r18, 0x34	; 52
     5d4:	30 e0       	ldi	r19, 0x00	; 0
     5d6:	60 e0       	ldi	r22, 0x00	; 0
     5d8:	01 c0       	rjmp	.+2      	; 0x5dc <LoadText+0xa8>
     5da:	67 2f       	mov	r22, r23
     5dc:	71 e0       	ldi	r23, 0x01	; 1
     5de:	76 0f       	add	r23, r22
     5e0:	2f 5f       	subi	r18, 0xFF	; 255
     5e2:	3f 4f       	sbci	r19, 0xFF	; 255
     5e4:	fa 01       	movw	r30, r20
     5e6:	44 91       	lpm	r20, Z
     5e8:	fc 01       	movw	r30, r24
     5ea:	e6 0f       	add	r30, r22
     5ec:	f1 1d       	adc	r31, r1
     5ee:	40 83       	st	Z, r20
     5f0:	a9 01       	movw	r20, r18
     5f2:	f9 01       	movw	r30, r18
     5f4:	64 91       	lpm	r22, Z
     5f6:	61 11       	cpse	r22, r1
     5f8:	f0 cf       	rjmp	.-32     	; 0x5da <LoadText+0xa6>
     5fa:	c1 cf       	rjmp	.-126    	; 0x57e <LoadText+0x4a>
     5fc:	49 e8       	ldi	r20, 0x89	; 137
     5fe:	50 e0       	ldi	r21, 0x00	; 0
     600:	fa 01       	movw	r30, r20
     602:	24 91       	lpm	r18, Z
     604:	22 23       	and	r18, r18
     606:	09 f4       	brne	.+2      	; 0x60a <LoadText+0xd6>
     608:	30 c0       	rjmp	.+96     	; 0x66a <LoadText+0x136>
     60a:	29 e8       	ldi	r18, 0x89	; 137
     60c:	30 e0       	ldi	r19, 0x00	; 0
     60e:	60 e0       	ldi	r22, 0x00	; 0
     610:	01 c0       	rjmp	.+2      	; 0x614 <LoadText+0xe0>
     612:	67 2f       	mov	r22, r23
     614:	71 e0       	ldi	r23, 0x01	; 1
     616:	76 0f       	add	r23, r22
     618:	2f 5f       	subi	r18, 0xFF	; 255
     61a:	3f 4f       	sbci	r19, 0xFF	; 255
     61c:	fa 01       	movw	r30, r20
     61e:	44 91       	lpm	r20, Z
     620:	fc 01       	movw	r30, r24
     622:	e6 0f       	add	r30, r22
     624:	f1 1d       	adc	r31, r1
     626:	40 83       	st	Z, r20
     628:	a9 01       	movw	r20, r18
     62a:	f9 01       	movw	r30, r18
     62c:	64 91       	lpm	r22, Z
     62e:	61 11       	cpse	r22, r1
     630:	f0 cf       	rjmp	.-32     	; 0x612 <LoadText+0xde>
     632:	a5 cf       	rjmp	.-182    	; 0x57e <LoadText+0x4a>
     634:	41 e7       	ldi	r20, 0x71	; 113
     636:	50 e0       	ldi	r21, 0x00	; 0
     638:	fa 01       	movw	r30, r20
     63a:	24 91       	lpm	r18, Z
     63c:	22 23       	and	r18, r18
     63e:	a9 f0       	breq	.+42     	; 0x66a <LoadText+0x136>
     640:	21 e7       	ldi	r18, 0x71	; 113
     642:	30 e0       	ldi	r19, 0x00	; 0
     644:	60 e0       	ldi	r22, 0x00	; 0
     646:	01 c0       	rjmp	.+2      	; 0x64a <LoadText+0x116>
     648:	67 2f       	mov	r22, r23
     64a:	71 e0       	ldi	r23, 0x01	; 1
     64c:	76 0f       	add	r23, r22
     64e:	2f 5f       	subi	r18, 0xFF	; 255
     650:	3f 4f       	sbci	r19, 0xFF	; 255
     652:	fa 01       	movw	r30, r20
     654:	44 91       	lpm	r20, Z
     656:	fc 01       	movw	r30, r24
     658:	e6 0f       	add	r30, r22
     65a:	f1 1d       	adc	r31, r1
     65c:	40 83       	st	Z, r20
     65e:	a9 01       	movw	r20, r18
     660:	f9 01       	movw	r30, r18
     662:	64 91       	lpm	r22, Z
     664:	61 11       	cpse	r22, r1
     666:	f0 cf       	rjmp	.-32     	; 0x648 <LoadText+0x114>
     668:	8a cf       	rjmp	.-236    	; 0x57e <LoadText+0x4a>
     66a:	20 e0       	ldi	r18, 0x00	; 0
     66c:	30 e0       	ldi	r19, 0x00	; 0
     66e:	89 cf       	rjmp	.-238    	; 0x582 <LoadText+0x4e>

00000670 <LoadText2>:
     670:	65 30       	cpi	r22, 0x05	; 5
     672:	08 f0       	brcs	.+2      	; 0x676 <LoadText2+0x6>
     674:	08 95       	ret
     676:	e6 2f       	mov	r30, r22
     678:	f0 e0       	ldi	r31, 0x00	; 0
     67a:	ee 0f       	add	r30, r30
     67c:	ff 1f       	adc	r31, r31
     67e:	ef 55       	subi	r30, 0x5F	; 95
     680:	ff 4f       	sbci	r31, 0xFF	; 255
     682:	65 91       	lpm	r22, Z+
     684:	74 91       	lpm	r23, Z
     686:	ff c8       	rjmp	.-3586   	; 0xfffff886 <__eeprom_end+0xff7ef886>

00000688 <DS3231_Init>:
     688:	80 e0       	ldi	r24, 0x00	; 0
     68a:	94 d5       	rcall	.+2856   	; 0x11b4 <I2C_InitStart>
     68c:	88 e6       	ldi	r24, 0x68	; 104
     68e:	dc d5       	rcall	.+3000   	; 0x1248 <I2C_WriteAdr>
     690:	80 91 07 01 	lds	r24, 0x0107
     694:	81 11       	cpse	r24, r1
     696:	2f c0       	rjmp	.+94     	; 0x6f6 <DS3231_Init+0x6e>
     698:	8e e0       	ldi	r24, 0x0E	; 14
     69a:	c1 d5       	rcall	.+2946   	; 0x121e <I2C_Write>
     69c:	80 91 07 01 	lds	r24, 0x0107
     6a0:	81 11       	cpse	r24, r1
     6a2:	29 c0       	rjmp	.+82     	; 0x6f6 <DS3231_Init+0x6e>
     6a4:	81 e0       	ldi	r24, 0x01	; 1
     6a6:	6a d5       	rcall	.+2772   	; 0x117c <I2C_Start>
     6a8:	80 91 07 01 	lds	r24, 0x0107
     6ac:	81 11       	cpse	r24, r1
     6ae:	23 c0       	rjmp	.+70     	; 0x6f6 <DS3231_Init+0x6e>
     6b0:	89 e6       	ldi	r24, 0x69	; 105
     6b2:	ca d5       	rcall	.+2964   	; 0x1248 <I2C_WriteAdr>
     6b4:	80 91 07 01 	lds	r24, 0x0107
     6b8:	81 11       	cpse	r24, r1
     6ba:	1d c0       	rjmp	.+58     	; 0x6f6 <DS3231_Init+0x6e>
     6bc:	e3 d5       	rcall	.+3014   	; 0x1284 <I2C_Read>
     6be:	80 91 07 01 	lds	r24, 0x0107
     6c2:	81 11       	cpse	r24, r1
     6c4:	1b c0       	rjmp	.+54     	; 0x6fc <DS3231_Init+0x74>
     6c6:	a3 d5       	rcall	.+2886   	; 0x120e <I2C_Stop>
     6c8:	80 e0       	ldi	r24, 0x00	; 0
     6ca:	74 d5       	rcall	.+2792   	; 0x11b4 <I2C_InitStart>
     6cc:	88 e6       	ldi	r24, 0x68	; 104
     6ce:	bc d5       	rcall	.+2936   	; 0x1248 <I2C_WriteAdr>
     6d0:	80 91 07 01 	lds	r24, 0x0107
     6d4:	81 11       	cpse	r24, r1
     6d6:	0f c0       	rjmp	.+30     	; 0x6f6 <DS3231_Init+0x6e>
     6d8:	80 e0       	ldi	r24, 0x00	; 0
     6da:	a1 d5       	rcall	.+2882   	; 0x121e <I2C_Write>
     6dc:	80 91 07 01 	lds	r24, 0x0107
     6e0:	81 11       	cpse	r24, r1
     6e2:	09 c0       	rjmp	.+18     	; 0x6f6 <DS3231_Init+0x6e>
     6e4:	80 e6       	ldi	r24, 0x60	; 96
     6e6:	9b d5       	rcall	.+2870   	; 0x121e <I2C_Write>
     6e8:	80 91 07 01 	lds	r24, 0x0107
     6ec:	81 11       	cpse	r24, r1
     6ee:	03 c0       	rjmp	.+6      	; 0x6f6 <DS3231_Init+0x6e>
     6f0:	8e d5       	rcall	.+2844   	; 0x120e <I2C_Stop>
     6f2:	81 e0       	ldi	r24, 0x01	; 1
     6f4:	08 95       	ret
     6f6:	87 d5       	rcall	.+2830   	; 0x1206 <I2C_FailStop>
     6f8:	80 e0       	ldi	r24, 0x00	; 0
     6fa:	08 95       	ret
     6fc:	84 d5       	rcall	.+2824   	; 0x1206 <I2C_FailStop>
     6fe:	80 e0       	ldi	r24, 0x00	; 0
     700:	08 95       	ret

00000702 <DS3231_GetTime>:
     702:	af 92       	push	r10
     704:	bf 92       	push	r11
     706:	cf 92       	push	r12
     708:	df 92       	push	r13
     70a:	ef 92       	push	r14
     70c:	ff 92       	push	r15
     70e:	0f 93       	push	r16
     710:	1f 93       	push	r17
     712:	cf 93       	push	r28
     714:	df 93       	push	r29
     716:	1f 92       	push	r1
     718:	cd b7       	in	r28, 0x3d	; 61
     71a:	de b7       	in	r29, 0x3e	; 62
     71c:	8c 01       	movw	r16, r24
     71e:	7b 01       	movw	r14, r22
     720:	5a 01       	movw	r10, r20
     722:	80 e0       	ldi	r24, 0x00	; 0
     724:	47 d5       	rcall	.+2702   	; 0x11b4 <I2C_InitStart>
     726:	88 e6       	ldi	r24, 0x68	; 104
     728:	8f d5       	rcall	.+2846   	; 0x1248 <I2C_WriteAdr>
     72a:	80 91 07 01 	lds	r24, 0x0107
     72e:	81 11       	cpse	r24, r1
     730:	87 c0       	rjmp	.+270    	; 0x840 <DS3231_GetTime+0x13e>
     732:	82 e0       	ldi	r24, 0x02	; 2
     734:	74 d5       	rcall	.+2792   	; 0x121e <I2C_Write>
     736:	80 91 07 01 	lds	r24, 0x0107
     73a:	81 11       	cpse	r24, r1
     73c:	81 c0       	rjmp	.+258    	; 0x840 <DS3231_GetTime+0x13e>
     73e:	81 e0       	ldi	r24, 0x01	; 1
     740:	1d d5       	rcall	.+2618   	; 0x117c <I2C_Start>
     742:	80 91 07 01 	lds	r24, 0x0107
     746:	81 11       	cpse	r24, r1
     748:	7b c0       	rjmp	.+246    	; 0x840 <DS3231_GetTime+0x13e>
     74a:	89 e6       	ldi	r24, 0x69	; 105
     74c:	7d d5       	rcall	.+2810   	; 0x1248 <I2C_WriteAdr>
     74e:	80 91 07 01 	lds	r24, 0x0107
     752:	81 11       	cpse	r24, r1
     754:	75 c0       	rjmp	.+234    	; 0x840 <DS3231_GetTime+0x13e>
     756:	96 d5       	rcall	.+2860   	; 0x1284 <I2C_Read>
     758:	d8 2e       	mov	r13, r24
     75a:	90 91 07 01 	lds	r25, 0x0107
     75e:	91 11       	cpse	r25, r1
     760:	6f c0       	rjmp	.+222    	; 0x840 <DS3231_GetTime+0x13e>
     762:	55 d5       	rcall	.+2730   	; 0x120e <I2C_Stop>
     764:	80 e0       	ldi	r24, 0x00	; 0
     766:	26 d5       	rcall	.+2636   	; 0x11b4 <I2C_InitStart>
     768:	88 e6       	ldi	r24, 0x68	; 104
     76a:	6e d5       	rcall	.+2780   	; 0x1248 <I2C_WriteAdr>
     76c:	80 91 07 01 	lds	r24, 0x0107
     770:	81 11       	cpse	r24, r1
     772:	66 c0       	rjmp	.+204    	; 0x840 <DS3231_GetTime+0x13e>
     774:	81 e0       	ldi	r24, 0x01	; 1
     776:	53 d5       	rcall	.+2726   	; 0x121e <I2C_Write>
     778:	90 91 07 01 	lds	r25, 0x0107
     77c:	91 11       	cpse	r25, r1
     77e:	60 c0       	rjmp	.+192    	; 0x840 <DS3231_GetTime+0x13e>
     780:	81 e0       	ldi	r24, 0x01	; 1
     782:	fc d4       	rcall	.+2552   	; 0x117c <I2C_Start>
     784:	90 91 07 01 	lds	r25, 0x0107
     788:	91 11       	cpse	r25, r1
     78a:	5a c0       	rjmp	.+180    	; 0x840 <DS3231_GetTime+0x13e>
     78c:	89 e6       	ldi	r24, 0x69	; 105
     78e:	5c d5       	rcall	.+2744   	; 0x1248 <I2C_WriteAdr>
     790:	80 91 07 01 	lds	r24, 0x0107
     794:	81 11       	cpse	r24, r1
     796:	54 c0       	rjmp	.+168    	; 0x840 <DS3231_GetTime+0x13e>
     798:	75 d5       	rcall	.+2794   	; 0x1284 <I2C_Read>
     79a:	c8 2e       	mov	r12, r24
     79c:	90 91 07 01 	lds	r25, 0x0107
     7a0:	91 11       	cpse	r25, r1
     7a2:	4e c0       	rjmp	.+156    	; 0x840 <DS3231_GetTime+0x13e>
     7a4:	34 d5       	rcall	.+2664   	; 0x120e <I2C_Stop>
     7a6:	80 e0       	ldi	r24, 0x00	; 0
     7a8:	05 d5       	rcall	.+2570   	; 0x11b4 <I2C_InitStart>
     7aa:	88 e6       	ldi	r24, 0x68	; 104
     7ac:	4d d5       	rcall	.+2714   	; 0x1248 <I2C_WriteAdr>
     7ae:	80 91 07 01 	lds	r24, 0x0107
     7b2:	81 11       	cpse	r24, r1
     7b4:	45 c0       	rjmp	.+138    	; 0x840 <DS3231_GetTime+0x13e>
     7b6:	33 d5       	rcall	.+2662   	; 0x121e <I2C_Write>
     7b8:	90 91 07 01 	lds	r25, 0x0107
     7bc:	91 11       	cpse	r25, r1
     7be:	40 c0       	rjmp	.+128    	; 0x840 <DS3231_GetTime+0x13e>
     7c0:	81 e0       	ldi	r24, 0x01	; 1
     7c2:	dc d4       	rcall	.+2488   	; 0x117c <I2C_Start>
     7c4:	90 91 07 01 	lds	r25, 0x0107
     7c8:	91 11       	cpse	r25, r1
     7ca:	3a c0       	rjmp	.+116    	; 0x840 <DS3231_GetTime+0x13e>
     7cc:	89 e6       	ldi	r24, 0x69	; 105
     7ce:	3c d5       	rcall	.+2680   	; 0x1248 <I2C_WriteAdr>
     7d0:	80 91 07 01 	lds	r24, 0x0107
     7d4:	81 11       	cpse	r24, r1
     7d6:	34 c0       	rjmp	.+104    	; 0x840 <DS3231_GetTime+0x13e>
     7d8:	55 d5       	rcall	.+2730   	; 0x1284 <I2C_Read>
     7da:	90 91 07 01 	lds	r25, 0x0107
     7de:	91 11       	cpse	r25, r1
     7e0:	2f c0       	rjmp	.+94     	; 0x840 <DS3231_GetTime+0x13e>
     7e2:	89 83       	std	Y+1, r24	; 0x01
     7e4:	14 d5       	rcall	.+2600   	; 0x120e <I2C_Stop>
     7e6:	9c 2d       	mov	r25, r12
     7e8:	92 95       	swap	r25
     7ea:	9f 70       	andi	r25, 0x0F	; 15
     7ec:	2c 2d       	mov	r18, r12
     7ee:	2f 70       	andi	r18, 0x0F	; 15
     7f0:	3a e0       	ldi	r19, 0x0A	; 10
     7f2:	93 9f       	mul	r25, r19
     7f4:	20 0d       	add	r18, r0
     7f6:	11 24       	eor	r1, r1
     7f8:	89 81       	ldd	r24, Y+1	; 0x01
     7fa:	98 2f       	mov	r25, r24
     7fc:	92 95       	swap	r25
     7fe:	9f 70       	andi	r25, 0x0F	; 15
     800:	38 2f       	mov	r19, r24
     802:	3f 70       	andi	r19, 0x0F	; 15
     804:	4a e0       	ldi	r20, 0x0A	; 10
     806:	94 9f       	mul	r25, r20
     808:	30 0d       	add	r19, r0
     80a:	11 24       	eor	r1, r1
     80c:	8d 2d       	mov	r24, r13
     80e:	d6 fe       	sbrs	r13, 6
     810:	27 c0       	rjmp	.+78     	; 0x860 <DS3231_GetTime+0x15e>
     812:	8f 71       	andi	r24, 0x1F	; 31
     814:	98 2f       	mov	r25, r24
     816:	92 95       	swap	r25
     818:	9f 70       	andi	r25, 0x0F	; 15
     81a:	8f 70       	andi	r24, 0x0F	; 15
     81c:	ea e0       	ldi	r30, 0x0A	; 10
     81e:	9e 9f       	mul	r25, r30
     820:	80 0d       	add	r24, r0
     822:	11 24       	eor	r1, r1
     824:	88 31       	cpi	r24, 0x18	; 24
     826:	d0 f4       	brcc	.+52     	; 0x85c <DS3231_GetTime+0x15a>
     828:	2c 33       	cpi	r18, 0x3C	; 60
     82a:	c0 f4       	brcc	.+48     	; 0x85c <DS3231_GetTime+0x15a>
     82c:	3c 33       	cpi	r19, 0x3C	; 60
     82e:	b0 f4       	brcc	.+44     	; 0x85c <DS3231_GetTime+0x15a>
     830:	f8 01       	movw	r30, r16
     832:	80 83       	st	Z, r24
     834:	f7 01       	movw	r30, r14
     836:	20 83       	st	Z, r18
     838:	f5 01       	movw	r30, r10
     83a:	30 83       	st	Z, r19
     83c:	81 e0       	ldi	r24, 0x01	; 1
     83e:	02 c0       	rjmp	.+4      	; 0x844 <DS3231_GetTime+0x142>
     840:	e2 d4       	rcall	.+2500   	; 0x1206 <I2C_FailStop>
     842:	80 e0       	ldi	r24, 0x00	; 0
     844:	0f 90       	pop	r0
     846:	df 91       	pop	r29
     848:	cf 91       	pop	r28
     84a:	1f 91       	pop	r17
     84c:	0f 91       	pop	r16
     84e:	ff 90       	pop	r15
     850:	ef 90       	pop	r14
     852:	df 90       	pop	r13
     854:	cf 90       	pop	r12
     856:	bf 90       	pop	r11
     858:	af 90       	pop	r10
     85a:	08 95       	ret
     85c:	80 e0       	ldi	r24, 0x00	; 0
     85e:	f2 cf       	rjmp	.-28     	; 0x844 <DS3231_GetTime+0x142>
     860:	8f 73       	andi	r24, 0x3F	; 63
     862:	d8 cf       	rjmp	.-80     	; 0x814 <DS3231_GetTime+0x112>

00000864 <DS3231_GetDate>:
     864:	ef 92       	push	r14
     866:	ff 92       	push	r15
     868:	0f 93       	push	r16
     86a:	1f 93       	push	r17
     86c:	cf 93       	push	r28
     86e:	df 93       	push	r29
     870:	8c 01       	movw	r16, r24
     872:	eb 01       	movw	r28, r22
     874:	7a 01       	movw	r14, r20
     876:	80 e0       	ldi	r24, 0x00	; 0
     878:	9d d4       	rcall	.+2362   	; 0x11b4 <I2C_InitStart>
     87a:	88 e6       	ldi	r24, 0x68	; 104
     87c:	e5 d4       	rcall	.+2506   	; 0x1248 <I2C_WriteAdr>
     87e:	80 91 07 01 	lds	r24, 0x0107
     882:	81 11       	cpse	r24, r1
     884:	84 c0       	rjmp	.+264    	; 0x98e <DS3231_GetDate+0x12a>
     886:	85 e0       	ldi	r24, 0x05	; 5
     888:	ca d4       	rcall	.+2452   	; 0x121e <I2C_Write>
     88a:	80 91 07 01 	lds	r24, 0x0107
     88e:	81 11       	cpse	r24, r1
     890:	7e c0       	rjmp	.+252    	; 0x98e <DS3231_GetDate+0x12a>
     892:	81 e0       	ldi	r24, 0x01	; 1
     894:	73 d4       	rcall	.+2278   	; 0x117c <I2C_Start>
     896:	80 91 07 01 	lds	r24, 0x0107
     89a:	81 11       	cpse	r24, r1
     89c:	78 c0       	rjmp	.+240    	; 0x98e <DS3231_GetDate+0x12a>
     89e:	89 e6       	ldi	r24, 0x69	; 105
     8a0:	d3 d4       	rcall	.+2470   	; 0x1248 <I2C_WriteAdr>
     8a2:	80 91 07 01 	lds	r24, 0x0107
     8a6:	81 11       	cpse	r24, r1
     8a8:	72 c0       	rjmp	.+228    	; 0x98e <DS3231_GetDate+0x12a>
     8aa:	ec d4       	rcall	.+2520   	; 0x1284 <I2C_Read>
     8ac:	88 83       	st	Y, r24
     8ae:	80 91 07 01 	lds	r24, 0x0107
     8b2:	81 11       	cpse	r24, r1
     8b4:	6c c0       	rjmp	.+216    	; 0x98e <DS3231_GetDate+0x12a>
     8b6:	ab d4       	rcall	.+2390   	; 0x120e <I2C_Stop>
     8b8:	80 e0       	ldi	r24, 0x00	; 0
     8ba:	7c d4       	rcall	.+2296   	; 0x11b4 <I2C_InitStart>
     8bc:	88 e6       	ldi	r24, 0x68	; 104
     8be:	c4 d4       	rcall	.+2440   	; 0x1248 <I2C_WriteAdr>
     8c0:	80 91 07 01 	lds	r24, 0x0107
     8c4:	81 11       	cpse	r24, r1
     8c6:	63 c0       	rjmp	.+198    	; 0x98e <DS3231_GetDate+0x12a>
     8c8:	84 e0       	ldi	r24, 0x04	; 4
     8ca:	a9 d4       	rcall	.+2386   	; 0x121e <I2C_Write>
     8cc:	80 91 07 01 	lds	r24, 0x0107
     8d0:	81 11       	cpse	r24, r1
     8d2:	5d c0       	rjmp	.+186    	; 0x98e <DS3231_GetDate+0x12a>
     8d4:	81 e0       	ldi	r24, 0x01	; 1
     8d6:	52 d4       	rcall	.+2212   	; 0x117c <I2C_Start>
     8d8:	80 91 07 01 	lds	r24, 0x0107
     8dc:	81 11       	cpse	r24, r1
     8de:	57 c0       	rjmp	.+174    	; 0x98e <DS3231_GetDate+0x12a>
     8e0:	89 e6       	ldi	r24, 0x69	; 105
     8e2:	b2 d4       	rcall	.+2404   	; 0x1248 <I2C_WriteAdr>
     8e4:	80 91 07 01 	lds	r24, 0x0107
     8e8:	81 11       	cpse	r24, r1
     8ea:	51 c0       	rjmp	.+162    	; 0x98e <DS3231_GetDate+0x12a>
     8ec:	cb d4       	rcall	.+2454   	; 0x1284 <I2C_Read>
     8ee:	f8 01       	movw	r30, r16
     8f0:	80 83       	st	Z, r24
     8f2:	80 91 07 01 	lds	r24, 0x0107
     8f6:	81 11       	cpse	r24, r1
     8f8:	4a c0       	rjmp	.+148    	; 0x98e <DS3231_GetDate+0x12a>
     8fa:	89 d4       	rcall	.+2322   	; 0x120e <I2C_Stop>
     8fc:	80 e0       	ldi	r24, 0x00	; 0
     8fe:	5a d4       	rcall	.+2228   	; 0x11b4 <I2C_InitStart>
     900:	88 e6       	ldi	r24, 0x68	; 104
     902:	a2 d4       	rcall	.+2372   	; 0x1248 <I2C_WriteAdr>
     904:	80 91 07 01 	lds	r24, 0x0107
     908:	81 11       	cpse	r24, r1
     90a:	41 c0       	rjmp	.+130    	; 0x98e <DS3231_GetDate+0x12a>
     90c:	86 e0       	ldi	r24, 0x06	; 6
     90e:	87 d4       	rcall	.+2318   	; 0x121e <I2C_Write>
     910:	80 91 07 01 	lds	r24, 0x0107
     914:	81 11       	cpse	r24, r1
     916:	3b c0       	rjmp	.+118    	; 0x98e <DS3231_GetDate+0x12a>
     918:	81 e0       	ldi	r24, 0x01	; 1
     91a:	30 d4       	rcall	.+2144   	; 0x117c <I2C_Start>
     91c:	80 91 07 01 	lds	r24, 0x0107
     920:	81 11       	cpse	r24, r1
     922:	35 c0       	rjmp	.+106    	; 0x98e <DS3231_GetDate+0x12a>
     924:	89 e6       	ldi	r24, 0x69	; 105
     926:	90 d4       	rcall	.+2336   	; 0x1248 <I2C_WriteAdr>
     928:	80 91 07 01 	lds	r24, 0x0107
     92c:	81 11       	cpse	r24, r1
     92e:	2f c0       	rjmp	.+94     	; 0x98e <DS3231_GetDate+0x12a>
     930:	a9 d4       	rcall	.+2386   	; 0x1284 <I2C_Read>
     932:	f7 01       	movw	r30, r14
     934:	80 83       	st	Z, r24
     936:	80 91 07 01 	lds	r24, 0x0107
     93a:	81 11       	cpse	r24, r1
     93c:	28 c0       	rjmp	.+80     	; 0x98e <DS3231_GetDate+0x12a>
     93e:	67 d4       	rcall	.+2254   	; 0x120e <I2C_Stop>
     940:	28 81       	ld	r18, Y
     942:	92 2f       	mov	r25, r18
     944:	96 95       	lsr	r25
     946:	96 95       	lsr	r25
     948:	96 95       	lsr	r25
     94a:	96 70       	andi	r25, 0x06	; 6
     94c:	89 2f       	mov	r24, r25
     94e:	88 0f       	add	r24, r24
     950:	88 0f       	add	r24, r24
     952:	89 0f       	add	r24, r25
     954:	2f 70       	andi	r18, 0x0F	; 15
     956:	82 0f       	add	r24, r18
     958:	88 83       	st	Y, r24
     95a:	f8 01       	movw	r30, r16
     95c:	80 81       	ld	r24, Z
     95e:	98 2f       	mov	r25, r24
     960:	92 95       	swap	r25
     962:	9f 70       	andi	r25, 0x0F	; 15
     964:	8f 70       	andi	r24, 0x0F	; 15
     966:	fa e0       	ldi	r31, 0x0A	; 10
     968:	9f 9f       	mul	r25, r31
     96a:	80 0d       	add	r24, r0
     96c:	11 24       	eor	r1, r1
     96e:	f8 01       	movw	r30, r16
     970:	80 83       	st	Z, r24
     972:	f7 01       	movw	r30, r14
     974:	80 81       	ld	r24, Z
     976:	98 2f       	mov	r25, r24
     978:	92 95       	swap	r25
     97a:	9f 70       	andi	r25, 0x0F	; 15
     97c:	8f 70       	andi	r24, 0x0F	; 15
     97e:	fa e0       	ldi	r31, 0x0A	; 10
     980:	9f 9f       	mul	r25, r31
     982:	80 0d       	add	r24, r0
     984:	11 24       	eor	r1, r1
     986:	f7 01       	movw	r30, r14
     988:	80 83       	st	Z, r24
     98a:	81 e0       	ldi	r24, 0x01	; 1
     98c:	02 c0       	rjmp	.+4      	; 0x992 <DS3231_GetDate+0x12e>
     98e:	3b d4       	rcall	.+2166   	; 0x1206 <I2C_FailStop>
     990:	80 e0       	ldi	r24, 0x00	; 0
     992:	df 91       	pop	r29
     994:	cf 91       	pop	r28
     996:	1f 91       	pop	r17
     998:	0f 91       	pop	r16
     99a:	ff 90       	pop	r15
     99c:	ef 90       	pop	r14
     99e:	08 95       	ret

000009a0 <DS3231_SetTime>:
     9a0:	0f 93       	push	r16
     9a2:	1f 93       	push	r17
     9a4:	cf 93       	push	r28
     9a6:	df 93       	push	r29
     9a8:	00 d0       	rcall	.+0      	; 0x9aa <DS3231_SetTime+0xa>
     9aa:	cd b7       	in	r28, 0x3d	; 61
     9ac:	de b7       	in	r29, 0x3e	; 62
     9ae:	18 2f       	mov	r17, r24
     9b0:	88 31       	cpi	r24, 0x18	; 24
     9b2:	08 f0       	brcs	.+2      	; 0x9b6 <DS3231_SetTime+0x16>
     9b4:	85 c0       	rjmp	.+266    	; 0xac0 <DS3231_SetTime+0x120>
     9b6:	6c 33       	cpi	r22, 0x3C	; 60
     9b8:	08 f0       	brcs	.+2      	; 0x9bc <DS3231_SetTime+0x1c>
     9ba:	82 c0       	rjmp	.+260    	; 0xac0 <DS3231_SetTime+0x120>
     9bc:	80 e0       	ldi	r24, 0x00	; 0
     9be:	4c 33       	cpi	r20, 0x3C	; 60
     9c0:	08 f0       	brcs	.+2      	; 0x9c4 <DS3231_SetTime+0x24>
     9c2:	7f c0       	rjmp	.+254    	; 0xac2 <DS3231_SetTime+0x122>
     9c4:	4a 83       	std	Y+2, r20	; 0x02
     9c6:	69 83       	std	Y+1, r22	; 0x01
     9c8:	f5 d3       	rcall	.+2026   	; 0x11b4 <I2C_InitStart>
     9ca:	88 e6       	ldi	r24, 0x68	; 104
     9cc:	3d d4       	rcall	.+2170   	; 0x1248 <I2C_WriteAdr>
     9ce:	80 91 07 01 	lds	r24, 0x0107
     9d2:	4a 81       	ldd	r20, Y+2	; 0x02
     9d4:	69 81       	ldd	r22, Y+1	; 0x01
     9d6:	81 11       	cpse	r24, r1
     9d8:	72 c0       	rjmp	.+228    	; 0xabe <DS3231_SetTime+0x11e>
     9da:	82 e0       	ldi	r24, 0x02	; 2
     9dc:	4a 83       	std	Y+2, r20	; 0x02
     9de:	69 83       	std	Y+1, r22	; 0x01
     9e0:	1e d4       	rcall	.+2108   	; 0x121e <I2C_Write>
     9e2:	80 91 07 01 	lds	r24, 0x0107
     9e6:	81 11       	cpse	r24, r1
     9e8:	6a c0       	rjmp	.+212    	; 0xabe <DS3231_SetTime+0x11e>
     9ea:	0d ec       	ldi	r16, 0xCD	; 205
     9ec:	10 9f       	mul	r17, r16
     9ee:	81 2d       	mov	r24, r1
     9f0:	11 24       	eor	r1, r1
     9f2:	86 95       	lsr	r24
     9f4:	86 95       	lsr	r24
     9f6:	86 95       	lsr	r24
     9f8:	90 e1       	ldi	r25, 0x10	; 16
     9fa:	89 9f       	mul	r24, r25
     9fc:	90 01       	movw	r18, r0
     9fe:	11 24       	eor	r1, r1
     a00:	ea e0       	ldi	r30, 0x0A	; 10
     a02:	8e 9f       	mul	r24, r30
     a04:	10 19       	sub	r17, r0
     a06:	11 24       	eor	r1, r1
     a08:	81 2f       	mov	r24, r17
     a0a:	82 2b       	or	r24, r18
     a0c:	08 d4       	rcall	.+2064   	; 0x121e <I2C_Write>
     a0e:	80 91 07 01 	lds	r24, 0x0107
     a12:	4a 81       	ldd	r20, Y+2	; 0x02
     a14:	69 81       	ldd	r22, Y+1	; 0x01
     a16:	81 11       	cpse	r24, r1
     a18:	5b c0       	rjmp	.+182    	; 0xad0 <DS3231_SetTime+0x130>
     a1a:	4a 83       	std	Y+2, r20	; 0x02
     a1c:	69 83       	std	Y+1, r22	; 0x01
     a1e:	f7 d3       	rcall	.+2030   	; 0x120e <I2C_Stop>
     a20:	80 e0       	ldi	r24, 0x00	; 0
     a22:	c8 d3       	rcall	.+1936   	; 0x11b4 <I2C_InitStart>
     a24:	88 e6       	ldi	r24, 0x68	; 104
     a26:	10 d4       	rcall	.+2080   	; 0x1248 <I2C_WriteAdr>
     a28:	80 91 07 01 	lds	r24, 0x0107
     a2c:	81 11       	cpse	r24, r1
     a2e:	47 c0       	rjmp	.+142    	; 0xabe <DS3231_SetTime+0x11e>
     a30:	81 e0       	ldi	r24, 0x01	; 1
     a32:	f5 d3       	rcall	.+2026   	; 0x121e <I2C_Write>
     a34:	80 91 07 01 	lds	r24, 0x0107
     a38:	69 81       	ldd	r22, Y+1	; 0x01
     a3a:	81 11       	cpse	r24, r1
     a3c:	40 c0       	rjmp	.+128    	; 0xabe <DS3231_SetTime+0x11e>
     a3e:	60 9f       	mul	r22, r16
     a40:	01 2d       	mov	r16, r1
     a42:	11 24       	eor	r1, r1
     a44:	06 95       	lsr	r16
     a46:	06 95       	lsr	r16
     a48:	06 95       	lsr	r16
     a4a:	f0 e1       	ldi	r31, 0x10	; 16
     a4c:	0f 9f       	mul	r16, r31
     a4e:	90 01       	movw	r18, r0
     a50:	11 24       	eor	r1, r1
     a52:	86 2f       	mov	r24, r22
     a54:	9a e0       	ldi	r25, 0x0A	; 10
     a56:	09 9f       	mul	r16, r25
     a58:	80 19       	sub	r24, r0
     a5a:	11 24       	eor	r1, r1
     a5c:	82 2b       	or	r24, r18
     a5e:	df d3       	rcall	.+1982   	; 0x121e <I2C_Write>
     a60:	80 91 07 01 	lds	r24, 0x0107
     a64:	81 11       	cpse	r24, r1
     a66:	34 c0       	rjmp	.+104    	; 0xad0 <DS3231_SetTime+0x130>
     a68:	d2 d3       	rcall	.+1956   	; 0x120e <I2C_Stop>
     a6a:	80 e0       	ldi	r24, 0x00	; 0
     a6c:	a3 d3       	rcall	.+1862   	; 0x11b4 <I2C_InitStart>
     a6e:	88 e6       	ldi	r24, 0x68	; 104
     a70:	eb d3       	rcall	.+2006   	; 0x1248 <I2C_WriteAdr>
     a72:	80 91 07 01 	lds	r24, 0x0107
     a76:	4a 81       	ldd	r20, Y+2	; 0x02
     a78:	81 11       	cpse	r24, r1
     a7a:	21 c0       	rjmp	.+66     	; 0xabe <DS3231_SetTime+0x11e>
     a7c:	80 e0       	ldi	r24, 0x00	; 0
     a7e:	4a 83       	std	Y+2, r20	; 0x02
     a80:	ce d3       	rcall	.+1948   	; 0x121e <I2C_Write>
     a82:	80 91 07 01 	lds	r24, 0x0107
     a86:	4a 81       	ldd	r20, Y+2	; 0x02
     a88:	81 11       	cpse	r24, r1
     a8a:	19 c0       	rjmp	.+50     	; 0xabe <DS3231_SetTime+0x11e>
     a8c:	8d ec       	ldi	r24, 0xCD	; 205
     a8e:	48 9f       	mul	r20, r24
     a90:	81 2d       	mov	r24, r1
     a92:	11 24       	eor	r1, r1
     a94:	86 95       	lsr	r24
     a96:	86 95       	lsr	r24
     a98:	86 95       	lsr	r24
     a9a:	e0 e1       	ldi	r30, 0x10	; 16
     a9c:	8e 9f       	mul	r24, r30
     a9e:	90 01       	movw	r18, r0
     aa0:	11 24       	eor	r1, r1
     aa2:	fa e0       	ldi	r31, 0x0A	; 10
     aa4:	8f 9f       	mul	r24, r31
     aa6:	40 19       	sub	r20, r0
     aa8:	11 24       	eor	r1, r1
     aaa:	84 2f       	mov	r24, r20
     aac:	82 2b       	or	r24, r18
     aae:	b7 d3       	rcall	.+1902   	; 0x121e <I2C_Write>
     ab0:	80 91 07 01 	lds	r24, 0x0107
     ab4:	81 11       	cpse	r24, r1
     ab6:	03 c0       	rjmp	.+6      	; 0xabe <DS3231_SetTime+0x11e>
     ab8:	aa d3       	rcall	.+1876   	; 0x120e <I2C_Stop>
     aba:	81 e0       	ldi	r24, 0x01	; 1
     abc:	02 c0       	rjmp	.+4      	; 0xac2 <DS3231_SetTime+0x122>
     abe:	a3 d3       	rcall	.+1862   	; 0x1206 <I2C_FailStop>
     ac0:	80 e0       	ldi	r24, 0x00	; 0
     ac2:	0f 90       	pop	r0
     ac4:	0f 90       	pop	r0
     ac6:	df 91       	pop	r29
     ac8:	cf 91       	pop	r28
     aca:	1f 91       	pop	r17
     acc:	0f 91       	pop	r16
     ace:	08 95       	ret
     ad0:	9a d3       	rcall	.+1844   	; 0x1206 <I2C_FailStop>
     ad2:	80 e0       	ldi	r24, 0x00	; 0
     ad4:	f6 cf       	rjmp	.-20     	; 0xac2 <DS3231_SetTime+0x122>

00000ad6 <DS3231_SetDate>:
     ad6:	0f 93       	push	r16
     ad8:	1f 93       	push	r17
     ada:	cf 93       	push	r28
     adc:	df 93       	push	r29
     ade:	00 d0       	rcall	.+0      	; 0xae0 <DS3231_SetDate+0xa>
     ae0:	cd b7       	in	r28, 0x3d	; 61
     ae2:	de b7       	in	r29, 0x3e	; 62
     ae4:	18 2f       	mov	r17, r24
     ae6:	9f ef       	ldi	r25, 0xFF	; 255
     ae8:	98 0f       	add	r25, r24
     aea:	9f 31       	cpi	r25, 0x1F	; 31
     aec:	08 f0       	brcs	.+2      	; 0xaf0 <DS3231_SetDate+0x1a>
     aee:	85 c0       	rjmp	.+266    	; 0xbfa <DS3231_SetDate+0x124>
     af0:	8f ef       	ldi	r24, 0xFF	; 255
     af2:	86 0f       	add	r24, r22
     af4:	8c 30       	cpi	r24, 0x0C	; 12
     af6:	08 f0       	brcs	.+2      	; 0xafa <DS3231_SetDate+0x24>
     af8:	80 c0       	rjmp	.+256    	; 0xbfa <DS3231_SetDate+0x124>
     afa:	80 e0       	ldi	r24, 0x00	; 0
     afc:	44 36       	cpi	r20, 0x64	; 100
     afe:	08 f0       	brcs	.+2      	; 0xb02 <DS3231_SetDate+0x2c>
     b00:	7d c0       	rjmp	.+250    	; 0xbfc <DS3231_SetDate+0x126>
     b02:	4a 83       	std	Y+2, r20	; 0x02
     b04:	69 83       	std	Y+1, r22	; 0x01
     b06:	56 d3       	rcall	.+1708   	; 0x11b4 <I2C_InitStart>
     b08:	88 e6       	ldi	r24, 0x68	; 104
     b0a:	9e d3       	rcall	.+1852   	; 0x1248 <I2C_WriteAdr>
     b0c:	80 91 07 01 	lds	r24, 0x0107
     b10:	4a 81       	ldd	r20, Y+2	; 0x02
     b12:	69 81       	ldd	r22, Y+1	; 0x01
     b14:	81 11       	cpse	r24, r1
     b16:	70 c0       	rjmp	.+224    	; 0xbf8 <DS3231_SetDate+0x122>
     b18:	85 e0       	ldi	r24, 0x05	; 5
     b1a:	4a 83       	std	Y+2, r20	; 0x02
     b1c:	69 83       	std	Y+1, r22	; 0x01
     b1e:	7f d3       	rcall	.+1790   	; 0x121e <I2C_Write>
     b20:	80 91 07 01 	lds	r24, 0x0107
     b24:	69 81       	ldd	r22, Y+1	; 0x01
     b26:	81 11       	cpse	r24, r1
     b28:	67 c0       	rjmp	.+206    	; 0xbf8 <DS3231_SetDate+0x122>
     b2a:	0d ec       	ldi	r16, 0xCD	; 205
     b2c:	60 9f       	mul	r22, r16
     b2e:	81 2d       	mov	r24, r1
     b30:	11 24       	eor	r1, r1
     b32:	86 95       	lsr	r24
     b34:	86 95       	lsr	r24
     b36:	86 95       	lsr	r24
     b38:	90 e1       	ldi	r25, 0x10	; 16
     b3a:	89 9f       	mul	r24, r25
     b3c:	90 01       	movw	r18, r0
     b3e:	11 24       	eor	r1, r1
     b40:	ea e0       	ldi	r30, 0x0A	; 10
     b42:	8e 9f       	mul	r24, r30
     b44:	60 19       	sub	r22, r0
     b46:	11 24       	eor	r1, r1
     b48:	86 2f       	mov	r24, r22
     b4a:	82 2b       	or	r24, r18
     b4c:	68 d3       	rcall	.+1744   	; 0x121e <I2C_Write>
     b4e:	80 91 07 01 	lds	r24, 0x0107
     b52:	4a 81       	ldd	r20, Y+2	; 0x02
     b54:	81 11       	cpse	r24, r1
     b56:	59 c0       	rjmp	.+178    	; 0xc0a <DS3231_SetDate+0x134>
     b58:	4a 83       	std	Y+2, r20	; 0x02
     b5a:	59 d3       	rcall	.+1714   	; 0x120e <I2C_Stop>
     b5c:	80 e0       	ldi	r24, 0x00	; 0
     b5e:	2a d3       	rcall	.+1620   	; 0x11b4 <I2C_InitStart>
     b60:	88 e6       	ldi	r24, 0x68	; 104
     b62:	72 d3       	rcall	.+1764   	; 0x1248 <I2C_WriteAdr>
     b64:	80 91 07 01 	lds	r24, 0x0107
     b68:	81 11       	cpse	r24, r1
     b6a:	46 c0       	rjmp	.+140    	; 0xbf8 <DS3231_SetDate+0x122>
     b6c:	84 e0       	ldi	r24, 0x04	; 4
     b6e:	57 d3       	rcall	.+1710   	; 0x121e <I2C_Write>
     b70:	80 91 07 01 	lds	r24, 0x0107
     b74:	81 11       	cpse	r24, r1
     b76:	40 c0       	rjmp	.+128    	; 0xbf8 <DS3231_SetDate+0x122>
     b78:	10 9f       	mul	r17, r16
     b7a:	01 2d       	mov	r16, r1
     b7c:	11 24       	eor	r1, r1
     b7e:	06 95       	lsr	r16
     b80:	06 95       	lsr	r16
     b82:	06 95       	lsr	r16
     b84:	f0 e1       	ldi	r31, 0x10	; 16
     b86:	0f 9f       	mul	r16, r31
     b88:	90 01       	movw	r18, r0
     b8a:	11 24       	eor	r1, r1
     b8c:	81 2f       	mov	r24, r17
     b8e:	9a e0       	ldi	r25, 0x0A	; 10
     b90:	09 9f       	mul	r16, r25
     b92:	80 19       	sub	r24, r0
     b94:	11 24       	eor	r1, r1
     b96:	82 2b       	or	r24, r18
     b98:	42 d3       	rcall	.+1668   	; 0x121e <I2C_Write>
     b9a:	80 91 07 01 	lds	r24, 0x0107
     b9e:	81 11       	cpse	r24, r1
     ba0:	34 c0       	rjmp	.+104    	; 0xc0a <DS3231_SetDate+0x134>
     ba2:	35 d3       	rcall	.+1642   	; 0x120e <I2C_Stop>
     ba4:	80 e0       	ldi	r24, 0x00	; 0
     ba6:	06 d3       	rcall	.+1548   	; 0x11b4 <I2C_InitStart>
     ba8:	88 e6       	ldi	r24, 0x68	; 104
     baa:	4e d3       	rcall	.+1692   	; 0x1248 <I2C_WriteAdr>
     bac:	80 91 07 01 	lds	r24, 0x0107
     bb0:	4a 81       	ldd	r20, Y+2	; 0x02
     bb2:	81 11       	cpse	r24, r1
     bb4:	21 c0       	rjmp	.+66     	; 0xbf8 <DS3231_SetDate+0x122>
     bb6:	86 e0       	ldi	r24, 0x06	; 6
     bb8:	4a 83       	std	Y+2, r20	; 0x02
     bba:	31 d3       	rcall	.+1634   	; 0x121e <I2C_Write>
     bbc:	80 91 07 01 	lds	r24, 0x0107
     bc0:	4a 81       	ldd	r20, Y+2	; 0x02
     bc2:	81 11       	cpse	r24, r1
     bc4:	19 c0       	rjmp	.+50     	; 0xbf8 <DS3231_SetDate+0x122>
     bc6:	8d ec       	ldi	r24, 0xCD	; 205
     bc8:	48 9f       	mul	r20, r24
     bca:	81 2d       	mov	r24, r1
     bcc:	11 24       	eor	r1, r1
     bce:	86 95       	lsr	r24
     bd0:	86 95       	lsr	r24
     bd2:	86 95       	lsr	r24
     bd4:	e0 e1       	ldi	r30, 0x10	; 16
     bd6:	8e 9f       	mul	r24, r30
     bd8:	90 01       	movw	r18, r0
     bda:	11 24       	eor	r1, r1
     bdc:	fa e0       	ldi	r31, 0x0A	; 10
     bde:	8f 9f       	mul	r24, r31
     be0:	40 19       	sub	r20, r0
     be2:	11 24       	eor	r1, r1
     be4:	84 2f       	mov	r24, r20
     be6:	82 2b       	or	r24, r18
     be8:	1a d3       	rcall	.+1588   	; 0x121e <I2C_Write>
     bea:	80 91 07 01 	lds	r24, 0x0107
     bee:	81 11       	cpse	r24, r1
     bf0:	03 c0       	rjmp	.+6      	; 0xbf8 <DS3231_SetDate+0x122>
     bf2:	0d d3       	rcall	.+1562   	; 0x120e <I2C_Stop>
     bf4:	81 e0       	ldi	r24, 0x01	; 1
     bf6:	02 c0       	rjmp	.+4      	; 0xbfc <DS3231_SetDate+0x126>
     bf8:	06 d3       	rcall	.+1548   	; 0x1206 <I2C_FailStop>
     bfa:	80 e0       	ldi	r24, 0x00	; 0
     bfc:	0f 90       	pop	r0
     bfe:	0f 90       	pop	r0
     c00:	df 91       	pop	r29
     c02:	cf 91       	pop	r28
     c04:	1f 91       	pop	r17
     c06:	0f 91       	pop	r16
     c08:	08 95       	ret
     c0a:	fd d2       	rcall	.+1530   	; 0x1206 <I2C_FailStop>
     c0c:	80 e0       	ldi	r24, 0x00	; 0
     c0e:	f6 cf       	rjmp	.-20     	; 0xbfc <DS3231_SetDate+0x126>

00000c10 <DS3231_Test>:
     c10:	df 92       	push	r13
     c12:	ef 92       	push	r14
     c14:	ff 92       	push	r15
     c16:	0f 93       	push	r16
     c18:	1f 93       	push	r17
     c1a:	cf 93       	push	r28
     c1c:	df 93       	push	r29
     c1e:	00 d0       	rcall	.+0      	; 0xc20 <DS3231_Test+0x10>
     c20:	00 d0       	rcall	.+0      	; 0xc22 <DS3231_Test+0x12>
     c22:	00 d0       	rcall	.+0      	; 0xc24 <DS3231_Test+0x14>
     c24:	cd b7       	in	r28, 0x3d	; 61
     c26:	de b7       	in	r29, 0x3e	; 62
     c28:	ae 01       	movw	r20, r28
     c2a:	4c 5f       	subi	r20, 0xFC	; 252
     c2c:	5f 4f       	sbci	r21, 0xFF	; 255
     c2e:	be 01       	movw	r22, r28
     c30:	6b 5f       	subi	r22, 0xFB	; 251
     c32:	7f 4f       	sbci	r23, 0xFF	; 255
     c34:	ce 01       	movw	r24, r28
     c36:	06 96       	adiw	r24, 0x06	; 6
     c38:	64 dd       	rcall	.-1336   	; 0x702 <DS3231_GetTime>
     c3a:	2f ef       	ldi	r18, 0xFF	; 255
     c3c:	8b e4       	ldi	r24, 0x4B	; 75
     c3e:	9d e1       	ldi	r25, 0x1D	; 29
     c40:	21 50       	subi	r18, 0x01	; 1
     c42:	80 40       	sbci	r24, 0x00	; 0
     c44:	90 40       	sbci	r25, 0x00	; 0
     c46:	e1 f7       	brne	.-8      	; 0xc40 <DS3231_Test+0x30>
     c48:	00 c0       	rjmp	.+0      	; 0xc4a <DS3231_Test+0x3a>
     c4a:	00 00       	nop
     c4c:	ae 01       	movw	r20, r28
     c4e:	4f 5f       	subi	r20, 0xFF	; 255
     c50:	5f 4f       	sbci	r21, 0xFF	; 255
     c52:	be 01       	movw	r22, r28
     c54:	6e 5f       	subi	r22, 0xFE	; 254
     c56:	7f 4f       	sbci	r23, 0xFF	; 255
     c58:	ce 01       	movw	r24, r28
     c5a:	03 96       	adiw	r24, 0x03	; 3
     c5c:	52 dd       	rcall	.-1372   	; 0x702 <DS3231_GetTime>
     c5e:	9c 81       	ldd	r25, Y+4	; 0x04
     c60:	89 81       	ldd	r24, Y+1	; 0x01
     c62:	98 13       	cpse	r25, r24
     c64:	dd c0       	rjmp	.+442    	; 0xe20 <DS3231_Test+0x210>
     c66:	99 e0       	ldi	r25, 0x09	; 9
     c68:	f9 2e       	mov	r15, r25
     c6a:	28 e1       	ldi	r18, 0x18	; 24
     c6c:	d2 2e       	mov	r13, r18
     c6e:	08 e1       	ldi	r16, 0x18	; 24
     c70:	10 e0       	ldi	r17, 0x00	; 0
     c72:	3f e0       	ldi	r19, 0x0F	; 15
     c74:	e3 2e       	mov	r14, r19
     c76:	0f b6       	in	r0, 0x3f	; 63
     c78:	f8 94       	cli
     c7a:	d0 92 60 00 	sts	0x0060, r13
     c7e:	10 92 60 00 	sts	0x0060, r1
     c82:	0f be       	out	0x3f, r0	; 63
     c84:	0f b6       	in	r0, 0x3f	; 63
     c86:	f8 94       	cli
     c88:	a8 95       	wdr
     c8a:	00 93 60 00 	sts	0x0060, r16
     c8e:	0f be       	out	0x3f, r0	; 63
     c90:	e0 92 60 00 	sts	0x0060, r14
     c94:	80 e0       	ldi	r24, 0x00	; 0
     c96:	8e d2       	rcall	.+1308   	; 0x11b4 <I2C_InitStart>
     c98:	88 e6       	ldi	r24, 0x68	; 104
     c9a:	d6 d2       	rcall	.+1452   	; 0x1248 <I2C_WriteAdr>
     c9c:	80 91 07 01 	lds	r24, 0x0107
     ca0:	81 11       	cpse	r24, r1
     ca2:	bc c0       	rjmp	.+376    	; 0xe1c <DS3231_Test+0x20c>
     ca4:	8e e0       	ldi	r24, 0x0E	; 14
     ca6:	bb d2       	rcall	.+1398   	; 0x121e <I2C_Write>
     ca8:	80 91 07 01 	lds	r24, 0x0107
     cac:	81 11       	cpse	r24, r1
     cae:	b6 c0       	rjmp	.+364    	; 0xe1c <DS3231_Test+0x20c>
     cb0:	81 e0       	ldi	r24, 0x01	; 1
     cb2:	64 d2       	rcall	.+1224   	; 0x117c <I2C_Start>
     cb4:	80 91 07 01 	lds	r24, 0x0107
     cb8:	81 11       	cpse	r24, r1
     cba:	b0 c0       	rjmp	.+352    	; 0xe1c <DS3231_Test+0x20c>
     cbc:	89 e6       	ldi	r24, 0x69	; 105
     cbe:	c4 d2       	rcall	.+1416   	; 0x1248 <I2C_WriteAdr>
     cc0:	80 91 07 01 	lds	r24, 0x0107
     cc4:	81 11       	cpse	r24, r1
     cc6:	aa c0       	rjmp	.+340    	; 0xe1c <DS3231_Test+0x20c>
     cc8:	dd d2       	rcall	.+1466   	; 0x1284 <I2C_Read>
     cca:	80 91 07 01 	lds	r24, 0x0107
     cce:	81 11       	cpse	r24, r1
     cd0:	a5 c0       	rjmp	.+330    	; 0xe1c <DS3231_Test+0x20c>
     cd2:	9d d2       	rcall	.+1338   	; 0x120e <I2C_Stop>
     cd4:	80 e0       	ldi	r24, 0x00	; 0
     cd6:	6e d2       	rcall	.+1244   	; 0x11b4 <I2C_InitStart>
     cd8:	88 e6       	ldi	r24, 0x68	; 104
     cda:	b6 d2       	rcall	.+1388   	; 0x1248 <I2C_WriteAdr>
     cdc:	80 91 07 01 	lds	r24, 0x0107
     ce0:	81 11       	cpse	r24, r1
     ce2:	9c c0       	rjmp	.+312    	; 0xe1c <DS3231_Test+0x20c>
     ce4:	80 e0       	ldi	r24, 0x00	; 0
     ce6:	9b d2       	rcall	.+1334   	; 0x121e <I2C_Write>
     ce8:	80 91 07 01 	lds	r24, 0x0107
     cec:	81 11       	cpse	r24, r1
     cee:	96 c0       	rjmp	.+300    	; 0xe1c <DS3231_Test+0x20c>
     cf0:	80 e6       	ldi	r24, 0x60	; 96
     cf2:	95 d2       	rcall	.+1322   	; 0x121e <I2C_Write>
     cf4:	80 91 07 01 	lds	r24, 0x0107
     cf8:	81 11       	cpse	r24, r1
     cfa:	90 c0       	rjmp	.+288    	; 0xe1c <DS3231_Test+0x20c>
     cfc:	88 d2       	rcall	.+1296   	; 0x120e <I2C_Stop>
     cfe:	80 e0       	ldi	r24, 0x00	; 0
     d00:	59 d2       	rcall	.+1202   	; 0x11b4 <I2C_InitStart>
     d02:	88 e6       	ldi	r24, 0x68	; 104
     d04:	a1 d2       	rcall	.+1346   	; 0x1248 <I2C_WriteAdr>
     d06:	80 91 07 01 	lds	r24, 0x0107
     d0a:	81 11       	cpse	r24, r1
     d0c:	36 c0       	rjmp	.+108    	; 0xd7a <DS3231_Test+0x16a>
     d0e:	82 e0       	ldi	r24, 0x02	; 2
     d10:	86 d2       	rcall	.+1292   	; 0x121e <I2C_Write>
     d12:	80 91 07 01 	lds	r24, 0x0107
     d16:	81 11       	cpse	r24, r1
     d18:	30 c0       	rjmp	.+96     	; 0xd7a <DS3231_Test+0x16a>
     d1a:	82 e1       	ldi	r24, 0x12	; 18
     d1c:	80 d2       	rcall	.+1280   	; 0x121e <I2C_Write>
     d1e:	80 91 07 01 	lds	r24, 0x0107
     d22:	81 11       	cpse	r24, r1
     d24:	2a c0       	rjmp	.+84     	; 0xd7a <DS3231_Test+0x16a>
     d26:	73 d2       	rcall	.+1254   	; 0x120e <I2C_Stop>
     d28:	80 e0       	ldi	r24, 0x00	; 0
     d2a:	44 d2       	rcall	.+1160   	; 0x11b4 <I2C_InitStart>
     d2c:	88 e6       	ldi	r24, 0x68	; 104
     d2e:	8c d2       	rcall	.+1304   	; 0x1248 <I2C_WriteAdr>
     d30:	80 91 07 01 	lds	r24, 0x0107
     d34:	81 11       	cpse	r24, r1
     d36:	21 c0       	rjmp	.+66     	; 0xd7a <DS3231_Test+0x16a>
     d38:	81 e0       	ldi	r24, 0x01	; 1
     d3a:	71 d2       	rcall	.+1250   	; 0x121e <I2C_Write>
     d3c:	80 91 07 01 	lds	r24, 0x0107
     d40:	81 11       	cpse	r24, r1
     d42:	1b c0       	rjmp	.+54     	; 0xd7a <DS3231_Test+0x16a>
     d44:	6c d2       	rcall	.+1240   	; 0x121e <I2C_Write>
     d46:	80 91 07 01 	lds	r24, 0x0107
     d4a:	81 11       	cpse	r24, r1
     d4c:	16 c0       	rjmp	.+44     	; 0xd7a <DS3231_Test+0x16a>
     d4e:	5f d2       	rcall	.+1214   	; 0x120e <I2C_Stop>
     d50:	80 e0       	ldi	r24, 0x00	; 0
     d52:	30 d2       	rcall	.+1120   	; 0x11b4 <I2C_InitStart>
     d54:	88 e6       	ldi	r24, 0x68	; 104
     d56:	78 d2       	rcall	.+1264   	; 0x1248 <I2C_WriteAdr>
     d58:	80 91 07 01 	lds	r24, 0x0107
     d5c:	81 11       	cpse	r24, r1
     d5e:	0d c0       	rjmp	.+26     	; 0xd7a <DS3231_Test+0x16a>
     d60:	80 e0       	ldi	r24, 0x00	; 0
     d62:	5d d2       	rcall	.+1210   	; 0x121e <I2C_Write>
     d64:	80 91 07 01 	lds	r24, 0x0107
     d68:	81 11       	cpse	r24, r1
     d6a:	07 c0       	rjmp	.+14     	; 0xd7a <DS3231_Test+0x16a>
     d6c:	58 d2       	rcall	.+1200   	; 0x121e <I2C_Write>
     d6e:	80 91 07 01 	lds	r24, 0x0107
     d72:	81 11       	cpse	r24, r1
     d74:	02 c0       	rjmp	.+4      	; 0xd7a <DS3231_Test+0x16a>
     d76:	4b d2       	rcall	.+1174   	; 0x120e <I2C_Stop>
     d78:	01 c0       	rjmp	.+2      	; 0xd7c <DS3231_Test+0x16c>
     d7a:	45 d2       	rcall	.+1162   	; 0x1206 <I2C_FailStop>
     d7c:	ae 01       	movw	r20, r28
     d7e:	4c 5f       	subi	r20, 0xFC	; 252
     d80:	5f 4f       	sbci	r21, 0xFF	; 255
     d82:	be 01       	movw	r22, r28
     d84:	6b 5f       	subi	r22, 0xFB	; 251
     d86:	7f 4f       	sbci	r23, 0xFF	; 255
     d88:	ce 01       	movw	r24, r28
     d8a:	06 96       	adiw	r24, 0x06	; 6
     d8c:	ba dc       	rcall	.-1676   	; 0x702 <DS3231_GetTime>
     d8e:	2f ef       	ldi	r18, 0xFF	; 255
     d90:	8b e4       	ldi	r24, 0x4B	; 75
     d92:	9d e1       	ldi	r25, 0x1D	; 29
     d94:	21 50       	subi	r18, 0x01	; 1
     d96:	80 40       	sbci	r24, 0x00	; 0
     d98:	90 40       	sbci	r25, 0x00	; 0
     d9a:	e1 f7       	brne	.-8      	; 0xd94 <DS3231_Test+0x184>
     d9c:	00 c0       	rjmp	.+0      	; 0xd9e <DS3231_Test+0x18e>
     d9e:	00 00       	nop
     da0:	ae 01       	movw	r20, r28
     da2:	4f 5f       	subi	r20, 0xFF	; 255
     da4:	5f 4f       	sbci	r21, 0xFF	; 255
     da6:	be 01       	movw	r22, r28
     da8:	6e 5f       	subi	r22, 0xFE	; 254
     daa:	7f 4f       	sbci	r23, 0xFF	; 255
     dac:	ce 01       	movw	r24, r28
     dae:	03 96       	adiw	r24, 0x03	; 3
     db0:	a8 dc       	rcall	.-1712   	; 0x702 <DS3231_GetTime>
     db2:	a8 95       	wdr
     db4:	9c 81       	ldd	r25, Y+4	; 0x04
     db6:	89 81       	ldd	r24, Y+1	; 0x01
     db8:	98 13       	cpse	r25, r24
     dba:	04 c0       	rjmp	.+8      	; 0xdc4 <DS3231_Test+0x1b4>
     dbc:	fa 94       	dec	r15
     dbe:	2f ef       	ldi	r18, 0xFF	; 255
     dc0:	f2 12       	cpse	r15, r18
     dc2:	59 cf       	rjmp	.-334    	; 0xc76 <DS3231_Test+0x66>
     dc4:	88 e1       	ldi	r24, 0x18	; 24
     dc6:	0f b6       	in	r0, 0x3f	; 63
     dc8:	f8 94       	cli
     dca:	80 93 60 00 	sts	0x0060, r24
     dce:	10 92 60 00 	sts	0x0060, r1
     dd2:	0f be       	out	0x3f, r0	; 63
     dd4:	f1 10       	cpse	r15, r1
     dd6:	14 c0       	rjmp	.+40     	; 0xe00 <DS3231_Test+0x1f0>
     dd8:	28 e0       	ldi	r18, 0x08	; 8
     dda:	88 e1       	ldi	r24, 0x18	; 24
     ddc:	90 e0       	ldi	r25, 0x00	; 0
     dde:	0f b6       	in	r0, 0x3f	; 63
     de0:	f8 94       	cli
     de2:	a8 95       	wdr
     de4:	80 93 60 00 	sts	0x0060, r24
     de8:	0f be       	out	0x3f, r0	; 63
     dea:	20 93 60 00 	sts	0x0060, r18
     dee:	8f e7       	ldi	r24, 0x7F	; 127
     df0:	98 e3       	ldi	r25, 0x38	; 56
     df2:	21 e0       	ldi	r18, 0x01	; 1
     df4:	81 50       	subi	r24, 0x01	; 1
     df6:	90 40       	sbci	r25, 0x00	; 0
     df8:	20 40       	sbci	r18, 0x00	; 0
     dfa:	e1 f7       	brne	.-8      	; 0xdf4 <DS3231_Test+0x1e4>
     dfc:	00 c0       	rjmp	.+0      	; 0xdfe <DS3231_Test+0x1ee>
     dfe:	00 00       	nop
     e00:	26 96       	adiw	r28, 0x06	; 6
     e02:	0f b6       	in	r0, 0x3f	; 63
     e04:	f8 94       	cli
     e06:	de bf       	out	0x3e, r29	; 62
     e08:	0f be       	out	0x3f, r0	; 63
     e0a:	cd bf       	out	0x3d, r28	; 61
     e0c:	df 91       	pop	r29
     e0e:	cf 91       	pop	r28
     e10:	1f 91       	pop	r17
     e12:	0f 91       	pop	r16
     e14:	ff 90       	pop	r15
     e16:	ef 90       	pop	r14
     e18:	df 90       	pop	r13
     e1a:	08 95       	ret
     e1c:	f4 d1       	rcall	.+1000   	; 0x1206 <I2C_FailStop>
     e1e:	6f cf       	rjmp	.-290    	; 0xcfe <DS3231_Test+0xee>
     e20:	8a e0       	ldi	r24, 0x0A	; 10
     e22:	f8 2e       	mov	r15, r24
     e24:	cf cf       	rjmp	.-98     	; 0xdc4 <DS3231_Test+0x1b4>

00000e26 <Timer0Init>:
     e26:	84 b5       	in	r24, 0x24	; 36
     e28:	82 60       	ori	r24, 0x02	; 2
     e2a:	84 bd       	out	0x24, r24	; 36
     e2c:	85 b5       	in	r24, 0x25	; 37
     e2e:	82 60       	ori	r24, 0x02	; 2
     e30:	85 bd       	out	0x25, r24	; 37
     e32:	ee e6       	ldi	r30, 0x6E	; 110
     e34:	f0 e0       	ldi	r31, 0x00	; 0
     e36:	80 81       	ld	r24, Z
     e38:	82 60       	ori	r24, 0x02	; 2
     e3a:	80 83       	st	Z, r24
     e3c:	8d e9       	ldi	r24, 0x9D	; 157
     e3e:	87 bd       	out	0x27, r24	; 39
     e40:	08 95       	ret

00000e42 <Timer2Init>:
     e42:	e0 eb       	ldi	r30, 0xB0	; 176
     e44:	f0 e0       	ldi	r31, 0x00	; 0
     e46:	80 81       	ld	r24, Z
     e48:	82 60       	ori	r24, 0x02	; 2
     e4a:	80 83       	st	Z, r24
     e4c:	e1 eb       	ldi	r30, 0xB1	; 177
     e4e:	f0 e0       	ldi	r31, 0x00	; 0
     e50:	80 81       	ld	r24, Z
     e52:	84 60       	ori	r24, 0x04	; 4
     e54:	80 83       	st	Z, r24
     e56:	e0 e7       	ldi	r30, 0x70	; 112
     e58:	f0 e0       	ldi	r31, 0x00	; 0
     e5a:	80 81       	ld	r24, Z
     e5c:	82 60       	ori	r24, 0x02	; 2
     e5e:	80 83       	st	Z, r24
     e60:	8e e4       	ldi	r24, 0x4E	; 78
     e62:	80 93 b3 00 	sts	0x00B3, r24
     e66:	08 95       	ret

00000e68 <ADCInit>:
     e68:	fc 01       	movw	r30, r24
     e6a:	aa e7       	ldi	r26, 0x7A	; 122
     e6c:	b0 e0       	ldi	r27, 0x00	; 0
     e6e:	8c 91       	ld	r24, X
     e70:	8f 68       	ori	r24, 0x8F	; 143
     e72:	8c 93       	st	X, r24
     e74:	10 82       	st	Z, r1
     e76:	13 82       	std	Z+3, r1	; 0x03
     e78:	12 82       	std	Z+2, r1	; 0x02
     e7a:	17 82       	std	Z+7, r1	; 0x07
     e7c:	16 82       	std	Z+6, r1	; 0x06
     e7e:	11 82       	std	Z+1, r1	; 0x01
     e80:	ec e7       	ldi	r30, 0x7C	; 124
     e82:	f0 e0       	ldi	r31, 0x00	; 0
     e84:	80 81       	ld	r24, Z
     e86:	80 7f       	andi	r24, 0xF0	; 240
     e88:	80 83       	st	Z, r24
     e8a:	08 95       	ret

00000e8c <ButtonsInit>:
     e8c:	58 9a       	sbi	0x0b, 0	; 11
     e8e:	58 9a       	sbi	0x0b, 0	; 11
     e90:	58 9a       	sbi	0x0b, 0	; 11
     e92:	e8 e6       	ldi	r30, 0x68	; 104
     e94:	f0 e0       	ldi	r31, 0x00	; 0
     e96:	80 81       	ld	r24, Z
     e98:	87 60       	ori	r24, 0x07	; 7
     e9a:	80 83       	st	Z, r24
     e9c:	ed e6       	ldi	r30, 0x6D	; 109
     e9e:	f0 e0       	ldi	r31, 0x00	; 0
     ea0:	80 81       	ld	r24, Z
     ea2:	80 83       	st	Z, r24
     ea4:	ec e6       	ldi	r30, 0x6C	; 108
     ea6:	f0 e0       	ldi	r31, 0x00	; 0
     ea8:	80 81       	ld	r24, Z
     eaa:	80 83       	st	Z, r24
     eac:	eb e6       	ldi	r30, 0x6B	; 107
     eae:	f0 e0       	ldi	r31, 0x00	; 0
     eb0:	80 81       	ld	r24, Z
     eb2:	80 83       	st	Z, r24
     eb4:	08 95       	ret

00000eb6 <RegistersInit>:
     eb6:	8a b1       	in	r24, 0x0a	; 10
     eb8:	81 63       	ori	r24, 0x31	; 49
     eba:	8a b9       	out	0x0a, r24	; 10
     ebc:	3b 9a       	sbi	0x07, 3	; 7
     ebe:	08 95       	ret

00000ec0 <RelayInit>:
     ec0:	57 9a       	sbi	0x0a, 7	; 10
     ec2:	08 95       	ret

00000ec4 <RelayStartClicking>:
     ec4:	fc 01       	movw	r30, r24
     ec6:	44 23       	and	r20, r20
     ec8:	09 f4       	brne	.+2      	; 0xecc <RelayStartClicking+0x8>
     eca:	4a c0       	rjmp	.+148    	; 0xf60 <RelayStartClicking+0x9c>
     ecc:	6d 33       	cpi	r22, 0x3D	; 61
     ece:	80 f0       	brcs	.+32     	; 0xef0 <RelayStartClicking+0x2c>
     ed0:	84 ec       	ldi	r24, 0xC4	; 196
     ed2:	86 0f       	add	r24, r22
     ed4:	8d 33       	cpi	r24, 0x3D	; 61
     ed6:	08 f4       	brcc	.+2      	; 0xeda <RelayStartClicking+0x16>
     ed8:	7f c0       	rjmp	.+254    	; 0xfd8 <RelayStartClicking+0x114>
     eda:	88 e8       	ldi	r24, 0x88	; 136
     edc:	86 0f       	add	r24, r22
     ede:	8d 33       	cpi	r24, 0x3D	; 61
     ee0:	08 f4       	brcc	.+2      	; 0xee4 <RelayStartClicking+0x20>
     ee2:	7a c0       	rjmp	.+244    	; 0xfd8 <RelayStartClicking+0x114>
     ee4:	8c e4       	ldi	r24, 0x4C	; 76
     ee6:	86 0f       	add	r24, r22
     ee8:	8d 33       	cpi	r24, 0x3D	; 61
     eea:	08 f4       	brcc	.+2      	; 0xeee <RelayStartClicking+0x2a>
     eec:	75 c0       	rjmp	.+234    	; 0xfd8 <RelayStartClicking+0x114>
     eee:	60 5f       	subi	r22, 0xF0	; 240
     ef0:	8d ec       	ldi	r24, 0xCD	; 205
     ef2:	68 9f       	mul	r22, r24
     ef4:	61 2d       	mov	r22, r1
     ef6:	11 24       	eor	r1, r1
     ef8:	66 95       	lsr	r22
     efa:	66 95       	lsr	r22
     efc:	66 95       	lsr	r22
     efe:	63 87       	std	Z+11, r22	; 0x0b
     f00:	12 86       	std	Z+10, r1	; 0x0a
     f02:	8e ee       	ldi	r24, 0xEE	; 238
     f04:	92 e0       	ldi	r25, 0x02	; 2
     f06:	93 83       	std	Z+3, r25	; 0x03
     f08:	82 83       	std	Z+2, r24	; 0x02
     f0a:	95 83       	std	Z+5, r25	; 0x05
     f0c:	84 83       	std	Z+4, r24	; 0x04
     f0e:	86 e9       	ldi	r24, 0x96	; 150
     f10:	90 e0       	ldi	r25, 0x00	; 0
     f12:	97 83       	std	Z+7, r25	; 0x07
     f14:	86 83       	std	Z+6, r24	; 0x06
     f16:	86 e4       	ldi	r24, 0x46	; 70
     f18:	95 e0       	ldi	r25, 0x05	; 5
     f1a:	91 87       	std	Z+9, r25	; 0x09
     f1c:	80 87       	std	Z+8, r24	; 0x08
     f1e:	8a e0       	ldi	r24, 0x0A	; 10
     f20:	84 87       	std	Z+12, r24	; 0x0c
     f22:	81 e0       	ldi	r24, 0x01	; 1
     f24:	90 e0       	ldi	r25, 0x00	; 0
     f26:	91 83       	std	Z+1, r25	; 0x01
     f28:	80 83       	st	Z, r24
     f2a:	83 85       	ldd	r24, Z+11	; 0x0b
     f2c:	88 23       	and	r24, r24
     f2e:	d9 f1       	breq	.+118    	; 0xfa6 <RelayStartClicking+0xe2>
     f30:	80 81       	ld	r24, Z
     f32:	91 81       	ldd	r25, Z+1	; 0x01
     f34:	01 97       	sbiw	r24, 0x01	; 1
     f36:	91 83       	std	Z+1, r25	; 0x01
     f38:	80 83       	st	Z, r24
     f3a:	89 2b       	or	r24, r25
     f3c:	a9 f5       	brne	.+106    	; 0xfa8 <RelayStartClicking+0xe4>
     f3e:	84 85       	ldd	r24, Z+12	; 0x0c
     f40:	81 11       	cpse	r24, r1
     f42:	33 c0       	rjmp	.+102    	; 0xfaa <RelayStartClicking+0xe6>
     f44:	5f 99       	sbic	0x0b, 7	; 11
     f46:	54 c0       	rjmp	.+168    	; 0xff0 <RelayStartClicking+0x12c>
     f48:	82 85       	ldd	r24, Z+10	; 0x0a
     f4a:	80 ff       	sbrs	r24, 0
     f4c:	4c c0       	rjmp	.+152    	; 0xfe6 <RelayStartClicking+0x122>
     f4e:	82 81       	ldd	r24, Z+2	; 0x02
     f50:	93 81       	ldd	r25, Z+3	; 0x03
     f52:	91 83       	std	Z+1, r25	; 0x01
     f54:	80 83       	st	Z, r24
     f56:	8b b1       	in	r24, 0x0b	; 11
     f58:	80 58       	subi	r24, 0x80	; 128
     f5a:	8b b9       	out	0x0b, r24	; 11
     f5c:	08 95       	ret
     f5e:	6c 50       	subi	r22, 0x0C	; 12
     f60:	6d 30       	cpi	r22, 0x0D	; 13
     f62:	e8 f7       	brcc	.-6      	; 0xf5e <RelayStartClicking+0x9a>
     f64:	6c 30       	cpi	r22, 0x0C	; 12
     f66:	99 f1       	breq	.+102    	; 0xfce <RelayStartClicking+0x10a>
     f68:	62 30       	cpi	r22, 0x02	; 2
     f6a:	c0 f1       	brcs	.+112    	; 0xfdc <RelayStartClicking+0x118>
     f6c:	88 e0       	ldi	r24, 0x08	; 8
     f6e:	83 87       	std	Z+11, r24	; 0x0b
     f70:	86 2f       	mov	r24, r22
     f72:	82 70       	andi	r24, 0x02	; 2
     f74:	82 95       	swap	r24
     f76:	88 0f       	add	r24, r24
     f78:	80 7e       	andi	r24, 0xE0	; 224
     f7a:	26 2f       	mov	r18, r22
     f7c:	24 70       	andi	r18, 0x04	; 4
     f7e:	22 0f       	add	r18, r18
     f80:	22 0f       	add	r18, r18
     f82:	22 0f       	add	r18, r18
     f84:	28 2b       	or	r18, r24
     f86:	30 e8       	ldi	r19, 0x80	; 128
     f88:	63 9f       	mul	r22, r19
     f8a:	c0 01       	movw	r24, r0
     f8c:	11 24       	eor	r1, r1
     f8e:	28 2b       	or	r18, r24
     f90:	68 70       	andi	r22, 0x08	; 8
     f92:	66 0f       	add	r22, r22
     f94:	62 2b       	or	r22, r18
     f96:	66 95       	lsr	r22
     f98:	83 85       	ldd	r24, Z+11	; 0x0b
     f9a:	81 50       	subi	r24, 0x01	; 1
     f9c:	83 87       	std	Z+11, r24	; 0x0b
     f9e:	60 ff       	sbrs	r22, 0
     fa0:	fa cf       	rjmp	.-12     	; 0xf96 <RelayStartClicking+0xd2>
     fa2:	62 87       	std	Z+10, r22	; 0x0a
     fa4:	ae cf       	rjmp	.-164    	; 0xf02 <RelayStartClicking+0x3e>
     fa6:	5f 98       	cbi	0x0b, 7	; 11
     fa8:	08 95       	ret
     faa:	8b b1       	in	r24, 0x0b	; 11
     fac:	80 58       	subi	r24, 0x80	; 128
     fae:	8b b9       	out	0x0b, r24	; 11
     fb0:	82 e3       	ldi	r24, 0x32	; 50
     fb2:	90 e0       	ldi	r25, 0x00	; 0
     fb4:	91 83       	std	Z+1, r25	; 0x01
     fb6:	80 83       	st	Z, r24
     fb8:	84 85       	ldd	r24, Z+12	; 0x0c
     fba:	81 50       	subi	r24, 0x01	; 1
     fbc:	84 87       	std	Z+12, r24	; 0x0c
     fbe:	81 11       	cpse	r24, r1
     fc0:	f3 cf       	rjmp	.-26     	; 0xfa8 <RelayStartClicking+0xe4>
     fc2:	5f 98       	cbi	0x0b, 7	; 11
     fc4:	88 ee       	ldi	r24, 0xE8	; 232
     fc6:	93 e0       	ldi	r25, 0x03	; 3
     fc8:	91 83       	std	Z+1, r25	; 0x01
     fca:	80 83       	st	Z, r24
     fcc:	08 95       	ret
     fce:	80 e0       	ldi	r24, 0x00	; 0
     fd0:	98 e0       	ldi	r25, 0x08	; 8
     fd2:	93 87       	std	Z+11, r25	; 0x0b
     fd4:	82 87       	std	Z+10, r24	; 0x0a
     fd6:	95 cf       	rjmp	.-214    	; 0xf02 <RelayStartClicking+0x3e>
     fd8:	68 2f       	mov	r22, r24
     fda:	8a cf       	rjmp	.-236    	; 0xef0 <RelayStartClicking+0x2c>
     fdc:	66 23       	and	r22, r22
     fde:	b9 f3       	breq	.-18     	; 0xfce <RelayStartClicking+0x10a>
     fe0:	81 e0       	ldi	r24, 0x01	; 1
     fe2:	91 e0       	ldi	r25, 0x01	; 1
     fe4:	f6 cf       	rjmp	.-20     	; 0xfd2 <RelayStartClicking+0x10e>
     fe6:	86 81       	ldd	r24, Z+6	; 0x06
     fe8:	97 81       	ldd	r25, Z+7	; 0x07
     fea:	91 83       	std	Z+1, r25	; 0x01
     fec:	80 83       	st	Z, r24
     fee:	b3 cf       	rjmp	.-154    	; 0xf56 <RelayStartClicking+0x92>
     ff0:	82 85       	ldd	r24, Z+10	; 0x0a
     ff2:	80 ff       	sbrs	r24, 0
     ff4:	0b c0       	rjmp	.+22     	; 0x100c <RelayStartClicking+0x148>
     ff6:	84 81       	ldd	r24, Z+4	; 0x04
     ff8:	95 81       	ldd	r25, Z+5	; 0x05
     ffa:	91 83       	std	Z+1, r25	; 0x01
     ffc:	80 83       	st	Z, r24
     ffe:	82 85       	ldd	r24, Z+10	; 0x0a
    1000:	86 95       	lsr	r24
    1002:	82 87       	std	Z+10, r24	; 0x0a
    1004:	83 85       	ldd	r24, Z+11	; 0x0b
    1006:	81 50       	subi	r24, 0x01	; 1
    1008:	83 87       	std	Z+11, r24	; 0x0b
    100a:	a5 cf       	rjmp	.-182    	; 0xf56 <RelayStartClicking+0x92>
    100c:	80 85       	ldd	r24, Z+8	; 0x08
    100e:	91 85       	ldd	r25, Z+9	; 0x09
    1010:	91 83       	std	Z+1, r25	; 0x01
    1012:	80 83       	st	Z, r24
    1014:	f4 cf       	rjmp	.-24     	; 0xffe <RelayStartClicking+0x13a>

00001016 <RelayTryClickMS>:
    1016:	fc 01       	movw	r30, r24
    1018:	83 85       	ldd	r24, Z+11	; 0x0b
    101a:	88 23       	and	r24, r24
    101c:	b9 f0       	breq	.+46     	; 0x104c <RelayTryClickMS+0x36>
    101e:	80 81       	ld	r24, Z
    1020:	91 81       	ldd	r25, Z+1	; 0x01
    1022:	01 97       	sbiw	r24, 0x01	; 1
    1024:	91 83       	std	Z+1, r25	; 0x01
    1026:	80 83       	st	Z, r24
    1028:	89 2b       	or	r24, r25
    102a:	89 f4       	brne	.+34     	; 0x104e <RelayTryClickMS+0x38>
    102c:	84 85       	ldd	r24, Z+12	; 0x0c
    102e:	81 11       	cpse	r24, r1
    1030:	0f c0       	rjmp	.+30     	; 0x1050 <RelayTryClickMS+0x3a>
    1032:	5f 99       	sbic	0x0b, 7	; 11
    1034:	24 c0       	rjmp	.+72     	; 0x107e <RelayTryClickMS+0x68>
    1036:	82 85       	ldd	r24, Z+10	; 0x0a
    1038:	80 ff       	sbrs	r24, 0
    103a:	1c c0       	rjmp	.+56     	; 0x1074 <RelayTryClickMS+0x5e>
    103c:	82 81       	ldd	r24, Z+2	; 0x02
    103e:	93 81       	ldd	r25, Z+3	; 0x03
    1040:	91 83       	std	Z+1, r25	; 0x01
    1042:	80 83       	st	Z, r24
    1044:	8b b1       	in	r24, 0x0b	; 11
    1046:	80 58       	subi	r24, 0x80	; 128
    1048:	8b b9       	out	0x0b, r24	; 11
    104a:	08 95       	ret
    104c:	5f 98       	cbi	0x0b, 7	; 11
    104e:	08 95       	ret
    1050:	8b b1       	in	r24, 0x0b	; 11
    1052:	80 58       	subi	r24, 0x80	; 128
    1054:	8b b9       	out	0x0b, r24	; 11
    1056:	82 e3       	ldi	r24, 0x32	; 50
    1058:	90 e0       	ldi	r25, 0x00	; 0
    105a:	91 83       	std	Z+1, r25	; 0x01
    105c:	80 83       	st	Z, r24
    105e:	84 85       	ldd	r24, Z+12	; 0x0c
    1060:	81 50       	subi	r24, 0x01	; 1
    1062:	84 87       	std	Z+12, r24	; 0x0c
    1064:	81 11       	cpse	r24, r1
    1066:	f3 cf       	rjmp	.-26     	; 0x104e <RelayTryClickMS+0x38>
    1068:	5f 98       	cbi	0x0b, 7	; 11
    106a:	88 ee       	ldi	r24, 0xE8	; 232
    106c:	93 e0       	ldi	r25, 0x03	; 3
    106e:	91 83       	std	Z+1, r25	; 0x01
    1070:	80 83       	st	Z, r24
    1072:	08 95       	ret
    1074:	86 81       	ldd	r24, Z+6	; 0x06
    1076:	97 81       	ldd	r25, Z+7	; 0x07
    1078:	91 83       	std	Z+1, r25	; 0x01
    107a:	80 83       	st	Z, r24
    107c:	e3 cf       	rjmp	.-58     	; 0x1044 <RelayTryClickMS+0x2e>
    107e:	82 85       	ldd	r24, Z+10	; 0x0a
    1080:	80 ff       	sbrs	r24, 0
    1082:	0b c0       	rjmp	.+22     	; 0x109a <RelayTryClickMS+0x84>
    1084:	84 81       	ldd	r24, Z+4	; 0x04
    1086:	95 81       	ldd	r25, Z+5	; 0x05
    1088:	91 83       	std	Z+1, r25	; 0x01
    108a:	80 83       	st	Z, r24
    108c:	82 85       	ldd	r24, Z+10	; 0x0a
    108e:	86 95       	lsr	r24
    1090:	82 87       	std	Z+10, r24	; 0x0a
    1092:	83 85       	ldd	r24, Z+11	; 0x0b
    1094:	81 50       	subi	r24, 0x01	; 1
    1096:	83 87       	std	Z+11, r24	; 0x0b
    1098:	d5 cf       	rjmp	.-86     	; 0x1044 <RelayTryClickMS+0x2e>
    109a:	80 85       	ldd	r24, Z+8	; 0x08
    109c:	91 85       	ldd	r25, Z+9	; 0x09
    109e:	91 83       	std	Z+1, r25	; 0x01
    10a0:	80 83       	st	Z, r24
    10a2:	f4 cf       	rjmp	.-24     	; 0x108c <RelayTryClickMS+0x76>

000010a4 <TryTimeUpdateMS>:
    10a4:	cf 93       	push	r28
    10a6:	df 93       	push	r29
    10a8:	fc 01       	movw	r30, r24
    10aa:	80 81       	ld	r24, Z
    10ac:	81 50       	subi	r24, 0x01	; 1
    10ae:	80 83       	st	Z, r24
    10b0:	88 23       	and	r24, r24
    10b2:	c1 f0       	breq	.+48     	; 0x10e4 <TryTimeUpdateMS+0x40>
    10b4:	24 81       	ldd	r18, Z+4	; 0x04
    10b6:	85 81       	ldd	r24, Z+5	; 0x05
    10b8:	36 81       	ldd	r19, Z+6	; 0x06
    10ba:	97 81       	ldd	r25, Z+7	; 0x07
    10bc:	da e0       	ldi	r29, 0x0A	; 10
    10be:	2d 9f       	mul	r18, r29
    10c0:	80 0d       	add	r24, r0
    10c2:	11 24       	eor	r1, r1
    10c4:	81 83       	std	Z+1, r24	; 0x01
    10c6:	2a e0       	ldi	r18, 0x0A	; 10
    10c8:	32 9f       	mul	r19, r18
    10ca:	90 0d       	add	r25, r0
    10cc:	11 24       	eor	r1, r1
    10ce:	92 83       	std	Z+2, r25	; 0x02
    10d0:	90 85       	ldd	r25, Z+8	; 0x08
    10d2:	81 85       	ldd	r24, Z+9	; 0x09
    10d4:	4a e0       	ldi	r20, 0x0A	; 10
    10d6:	94 9f       	mul	r25, r20
    10d8:	80 0d       	add	r24, r0
    10da:	11 24       	eor	r1, r1
    10dc:	83 83       	std	Z+3, r24	; 0x03
    10de:	df 91       	pop	r29
    10e0:	cf 91       	pop	r28
    10e2:	08 95       	ret
    10e4:	97 81       	ldd	r25, Z+7	; 0x07
    10e6:	db 01       	movw	r26, r22
    10e8:	17 96       	adiw	r26, 0x07	; 7
    10ea:	5c 91       	ld	r21, X
    10ec:	59 17       	cp	r21, r25
    10ee:	40 f4       	brcc	.+16     	; 0x1100 <TryTimeUpdateMS+0x5c>
    10f0:	91 50       	subi	r25, 0x01	; 1
    10f2:	97 83       	std	Z+7, r25	; 0x07
    10f4:	24 81       	ldd	r18, Z+4	; 0x04
    10f6:	85 81       	ldd	r24, Z+5	; 0x05
    10f8:	36 81       	ldd	r19, Z+6	; 0x06
    10fa:	44 e6       	ldi	r20, 0x64	; 100
    10fc:	40 83       	st	Z, r20
    10fe:	de cf       	rjmp	.-68     	; 0x10bc <TryTimeUpdateMS+0x18>
    1100:	36 81       	ldd	r19, Z+6	; 0x06
    1102:	eb 01       	movw	r28, r22
    1104:	4e 81       	ldd	r20, Y+6	; 0x06
    1106:	43 17       	cp	r20, r19
    1108:	48 f0       	brcs	.+18     	; 0x111c <TryTimeUpdateMS+0x78>
    110a:	85 81       	ldd	r24, Z+5	; 0x05
    110c:	eb 01       	movw	r28, r22
    110e:	ad 81       	ldd	r26, Y+5	; 0x05
    1110:	a8 17       	cp	r26, r24
    1112:	48 f4       	brcc	.+18     	; 0x1126 <TryTimeUpdateMS+0x82>
    1114:	81 50       	subi	r24, 0x01	; 1
    1116:	85 83       	std	Z+5, r24	; 0x05
    1118:	24 81       	ldd	r18, Z+4	; 0x04
    111a:	ef cf       	rjmp	.-34     	; 0x10fa <TryTimeUpdateMS+0x56>
    111c:	31 50       	subi	r19, 0x01	; 1
    111e:	36 83       	std	Z+6, r19	; 0x06
    1120:	24 81       	ldd	r18, Z+4	; 0x04
    1122:	85 81       	ldd	r24, Z+5	; 0x05
    1124:	ea cf       	rjmp	.-44     	; 0x10fa <TryTimeUpdateMS+0x56>
    1126:	24 81       	ldd	r18, Z+4	; 0x04
    1128:	eb 01       	movw	r28, r22
    112a:	6c 81       	ldd	r22, Y+4	; 0x04
    112c:	62 17       	cp	r22, r18
    112e:	a8 f0       	brcs	.+42     	; 0x115a <TryTimeUpdateMS+0xb6>
    1130:	74 e6       	ldi	r23, 0x64	; 100
    1132:	70 83       	st	Z, r23
    1134:	95 17       	cp	r25, r21
    1136:	10 f4       	brcc	.+4      	; 0x113c <TryTimeUpdateMS+0x98>
    1138:	9f 5f       	subi	r25, 0xFF	; 255
    113a:	97 83       	std	Z+7, r25	; 0x07
    113c:	34 17       	cp	r19, r20
    113e:	10 f4       	brcc	.+4      	; 0x1144 <TryTimeUpdateMS+0xa0>
    1140:	3f 5f       	subi	r19, 0xFF	; 255
    1142:	36 83       	std	Z+6, r19	; 0x06
    1144:	8a 17       	cp	r24, r26
    1146:	10 f4       	brcc	.+4      	; 0x114c <TryTimeUpdateMS+0xa8>
    1148:	8f 5f       	subi	r24, 0xFF	; 255
    114a:	85 83       	std	Z+5, r24	; 0x05
    114c:	26 17       	cp	r18, r22
    114e:	08 f0       	brcs	.+2      	; 0x1152 <TryTimeUpdateMS+0xae>
    1150:	b5 cf       	rjmp	.-150    	; 0x10bc <TryTimeUpdateMS+0x18>
    1152:	2f 5f       	subi	r18, 0xFF	; 255
    1154:	24 83       	std	Z+4, r18	; 0x04
    1156:	85 81       	ldd	r24, Z+5	; 0x05
    1158:	b1 cf       	rjmp	.-158    	; 0x10bc <TryTimeUpdateMS+0x18>
    115a:	21 50       	subi	r18, 0x01	; 1
    115c:	24 83       	std	Z+4, r18	; 0x04
    115e:	cd cf       	rjmp	.-102    	; 0x10fa <TryTimeUpdateMS+0x56>

00001160 <I2C_Init>:
    1160:	10 92 07 01 	sts	0x0107, r1
    1164:	84 e4       	ldi	r24, 0x44	; 68
    1166:	80 93 bc 00 	sts	0x00BC, r24
    116a:	e9 eb       	ldi	r30, 0xB9	; 185
    116c:	f0 e0       	ldi	r31, 0x00	; 0
    116e:	80 81       	ld	r24, Z
    1170:	83 70       	andi	r24, 0x03	; 3
    1172:	80 83       	st	Z, r24
    1174:	80 e2       	ldi	r24, 0x20	; 32
    1176:	80 93 b8 00 	sts	0x00B8, r24
    117a:	08 95       	ret

0000117c <I2C_Start>:
    117c:	88 23       	and	r24, r24
    117e:	a1 f0       	breq	.+40     	; 0x11a8 <I2C_Start+0x2c>
    1180:	80 e1       	ldi	r24, 0x10	; 16
    1182:	90 e0       	ldi	r25, 0x00	; 0
    1184:	24 ea       	ldi	r18, 0xA4	; 164
    1186:	20 93 bc 00 	sts	0x00BC, r18
    118a:	20 91 bc 00 	lds	r18, 0x00BC
    118e:	27 ff       	sbrs	r18, 7
    1190:	fc cf       	rjmp	.-8      	; 0x118a <I2C_Start+0xe>
    1192:	20 91 b9 00 	lds	r18, 0x00B9
    1196:	28 7f       	andi	r18, 0xF8	; 248
    1198:	30 e0       	ldi	r19, 0x00	; 0
    119a:	28 17       	cp	r18, r24
    119c:	39 07       	cpc	r19, r25
    119e:	39 f0       	breq	.+14     	; 0x11ae <I2C_Start+0x32>
    11a0:	81 e0       	ldi	r24, 0x01	; 1
    11a2:	80 93 07 01 	sts	0x0107, r24
    11a6:	08 95       	ret
    11a8:	88 e0       	ldi	r24, 0x08	; 8
    11aa:	90 e0       	ldi	r25, 0x00	; 0
    11ac:	eb cf       	rjmp	.-42     	; 0x1184 <I2C_Start+0x8>
    11ae:	10 92 07 01 	sts	0x0107, r1
    11b2:	08 95       	ret

000011b4 <I2C_InitStart>:
    11b4:	10 92 07 01 	sts	0x0107, r1
    11b8:	94 e4       	ldi	r25, 0x44	; 68
    11ba:	90 93 bc 00 	sts	0x00BC, r25
    11be:	90 91 b9 00 	lds	r25, 0x00B9
    11c2:	93 70       	andi	r25, 0x03	; 3
    11c4:	90 93 b9 00 	sts	0x00B9, r25
    11c8:	90 e2       	ldi	r25, 0x20	; 32
    11ca:	90 93 b8 00 	sts	0x00B8, r25
    11ce:	88 23       	and	r24, r24
    11d0:	a1 f0       	breq	.+40     	; 0x11fa <I2C_InitStart+0x46>
    11d2:	80 e1       	ldi	r24, 0x10	; 16
    11d4:	90 e0       	ldi	r25, 0x00	; 0
    11d6:	24 ea       	ldi	r18, 0xA4	; 164
    11d8:	20 93 bc 00 	sts	0x00BC, r18
    11dc:	20 91 bc 00 	lds	r18, 0x00BC
    11e0:	27 ff       	sbrs	r18, 7
    11e2:	fc cf       	rjmp	.-8      	; 0x11dc <I2C_InitStart+0x28>
    11e4:	20 91 b9 00 	lds	r18, 0x00B9
    11e8:	28 7f       	andi	r18, 0xF8	; 248
    11ea:	30 e0       	ldi	r19, 0x00	; 0
    11ec:	28 17       	cp	r18, r24
    11ee:	39 07       	cpc	r19, r25
    11f0:	39 f0       	breq	.+14     	; 0x1200 <I2C_InitStart+0x4c>
    11f2:	81 e0       	ldi	r24, 0x01	; 1
    11f4:	80 93 07 01 	sts	0x0107, r24
    11f8:	08 95       	ret
    11fa:	88 e0       	ldi	r24, 0x08	; 8
    11fc:	90 e0       	ldi	r25, 0x00	; 0
    11fe:	eb cf       	rjmp	.-42     	; 0x11d6 <I2C_InitStart+0x22>
    1200:	10 92 07 01 	sts	0x0107, r1
    1204:	08 95       	ret

00001206 <I2C_FailStop>:
    1206:	84 e9       	ldi	r24, 0x94	; 148
    1208:	80 93 bc 00 	sts	0x00BC, r24
    120c:	08 95       	ret

0000120e <I2C_Stop>:
    120e:	84 e9       	ldi	r24, 0x94	; 148
    1210:	80 93 bc 00 	sts	0x00BC, r24
    1214:	80 91 bc 00 	lds	r24, 0x00BC
    1218:	84 ff       	sbrs	r24, 4
    121a:	fc cf       	rjmp	.-8      	; 0x1214 <I2C_Stop+0x6>
    121c:	08 95       	ret

0000121e <I2C_Write>:
    121e:	80 93 bb 00 	sts	0x00BB, r24
    1222:	84 e8       	ldi	r24, 0x84	; 132
    1224:	80 93 bc 00 	sts	0x00BC, r24
    1228:	80 91 bc 00 	lds	r24, 0x00BC
    122c:	87 ff       	sbrs	r24, 7
    122e:	fc cf       	rjmp	.-8      	; 0x1228 <I2C_Write+0xa>
    1230:	80 91 b9 00 	lds	r24, 0x00B9
    1234:	88 7f       	andi	r24, 0xF8	; 248
    1236:	88 32       	cpi	r24, 0x28	; 40
    1238:	21 f0       	breq	.+8      	; 0x1242 <I2C_Write+0x24>
    123a:	84 e0       	ldi	r24, 0x04	; 4
    123c:	80 93 07 01 	sts	0x0107, r24
    1240:	08 95       	ret
    1242:	10 92 07 01 	sts	0x0107, r1
    1246:	08 95       	ret

00001248 <I2C_WriteAdr>:
    1248:	80 ff       	sbrs	r24, 0
    124a:	16 c0       	rjmp	.+44     	; 0x1278 <I2C_WriteAdr+0x30>
    124c:	20 e4       	ldi	r18, 0x40	; 64
    124e:	30 e0       	ldi	r19, 0x00	; 0
    1250:	80 93 bb 00 	sts	0x00BB, r24
    1254:	84 e8       	ldi	r24, 0x84	; 132
    1256:	80 93 bc 00 	sts	0x00BC, r24
    125a:	80 91 bc 00 	lds	r24, 0x00BC
    125e:	87 ff       	sbrs	r24, 7
    1260:	fc cf       	rjmp	.-8      	; 0x125a <I2C_WriteAdr+0x12>
    1262:	80 91 b9 00 	lds	r24, 0x00B9
    1266:	88 7f       	andi	r24, 0xF8	; 248
    1268:	90 e0       	ldi	r25, 0x00	; 0
    126a:	82 17       	cp	r24, r18
    126c:	93 07       	cpc	r25, r19
    126e:	39 f0       	breq	.+14     	; 0x127e <I2C_WriteAdr+0x36>
    1270:	83 e0       	ldi	r24, 0x03	; 3
    1272:	80 93 07 01 	sts	0x0107, r24
    1276:	08 95       	ret
    1278:	28 e1       	ldi	r18, 0x18	; 24
    127a:	30 e0       	ldi	r19, 0x00	; 0
    127c:	e9 cf       	rjmp	.-46     	; 0x1250 <I2C_WriteAdr+0x8>
    127e:	10 92 07 01 	sts	0x0107, r1
    1282:	08 95       	ret

00001284 <I2C_Read>:
    1284:	90 e4       	ldi	r25, 0x40	; 64
    1286:	89 9f       	mul	r24, r25
    1288:	90 01       	movw	r18, r0
    128a:	11 24       	eor	r1, r1
    128c:	24 68       	ori	r18, 0x84	; 132
    128e:	20 93 bc 00 	sts	0x00BC, r18
    1292:	90 91 bc 00 	lds	r25, 0x00BC
    1296:	97 ff       	sbrs	r25, 7
    1298:	fc cf       	rjmp	.-8      	; 0x1292 <I2C_Read+0xe>
    129a:	88 23       	and	r24, r24
    129c:	51 f0       	breq	.+20     	; 0x12b2 <I2C_Read+0x2e>
    129e:	80 91 b9 00 	lds	r24, 0x00B9
    12a2:	88 7f       	andi	r24, 0xF8	; 248
    12a4:	80 35       	cpi	r24, 0x50	; 80
    12a6:	79 f0       	breq	.+30     	; 0x12c6 <I2C_Read+0x42>
    12a8:	84 e0       	ldi	r24, 0x04	; 4
    12aa:	80 93 07 01 	sts	0x0107, r24
    12ae:	80 e0       	ldi	r24, 0x00	; 0
    12b0:	08 95       	ret
    12b2:	80 91 b9 00 	lds	r24, 0x00B9
    12b6:	88 7f       	andi	r24, 0xF8	; 248
    12b8:	88 35       	cpi	r24, 0x58	; 88
    12ba:	29 f0       	breq	.+10     	; 0x12c6 <I2C_Read+0x42>
    12bc:	83 e0       	ldi	r24, 0x03	; 3
    12be:	80 93 07 01 	sts	0x0107, r24
    12c2:	80 e0       	ldi	r24, 0x00	; 0
    12c4:	08 95       	ret
    12c6:	10 92 07 01 	sts	0x0107, r1
    12ca:	80 91 bb 00 	lds	r24, 0x00BB
    12ce:	08 95       	ret

000012d0 <I2C_write_buf>:
    12d0:	10 92 07 01 	sts	0x0107, r1
    12d4:	94 e4       	ldi	r25, 0x44	; 68
    12d6:	90 93 bc 00 	sts	0x00BC, r25
    12da:	90 91 b9 00 	lds	r25, 0x00B9
    12de:	93 70       	andi	r25, 0x03	; 3
    12e0:	90 93 b9 00 	sts	0x00B9, r25
    12e4:	90 e2       	ldi	r25, 0x20	; 32
    12e6:	90 93 b8 00 	sts	0x00B8, r25
    12ea:	94 ea       	ldi	r25, 0xA4	; 164
    12ec:	90 93 bc 00 	sts	0x00BC, r25
    12f0:	90 91 bc 00 	lds	r25, 0x00BC
    12f4:	97 ff       	sbrs	r25, 7
    12f6:	fc cf       	rjmp	.-8      	; 0x12f0 <I2C_write_buf+0x20>
    12f8:	90 91 b9 00 	lds	r25, 0x00B9
    12fc:	98 7f       	andi	r25, 0xF8	; 248
    12fe:	98 30       	cpi	r25, 0x08	; 8
    1300:	19 f1       	breq	.+70     	; 0x1348 <I2C_write_buf+0x78>
    1302:	91 e0       	ldi	r25, 0x01	; 1
    1304:	90 93 07 01 	sts	0x0107, r25
    1308:	80 ff       	sbrs	r24, 0
    130a:	1b c0       	rjmp	.+54     	; 0x1342 <I2C_write_buf+0x72>
    130c:	e0 e4       	ldi	r30, 0x40	; 64
    130e:	f0 e0       	ldi	r31, 0x00	; 0
    1310:	80 93 bb 00 	sts	0x00BB, r24
    1314:	84 e8       	ldi	r24, 0x84	; 132
    1316:	80 93 bc 00 	sts	0x00BC, r24
    131a:	80 91 bc 00 	lds	r24, 0x00BC
    131e:	87 ff       	sbrs	r24, 7
    1320:	fc cf       	rjmp	.-8      	; 0x131a <I2C_write_buf+0x4a>
    1322:	80 91 b9 00 	lds	r24, 0x00B9
    1326:	88 7f       	andi	r24, 0xF8	; 248
    1328:	90 e0       	ldi	r25, 0x00	; 0
    132a:	8e 17       	cp	r24, r30
    132c:	9f 07       	cpc	r25, r31
    132e:	79 f0       	breq	.+30     	; 0x134e <I2C_write_buf+0x7e>
    1330:	83 e0       	ldi	r24, 0x03	; 3
    1332:	80 93 07 01 	sts	0x0107, r24
    1336:	84 e9       	ldi	r24, 0x94	; 148
    1338:	80 93 bc 00 	sts	0x00BC, r24
    133c:	80 91 07 01 	lds	r24, 0x0107
    1340:	08 95       	ret
    1342:	e8 e1       	ldi	r30, 0x18	; 24
    1344:	f0 e0       	ldi	r31, 0x00	; 0
    1346:	e4 cf       	rjmp	.-56     	; 0x1310 <I2C_write_buf+0x40>
    1348:	10 92 07 01 	sts	0x0107, r1
    134c:	dd cf       	rjmp	.-70     	; 0x1308 <I2C_write_buf+0x38>
    134e:	10 92 07 01 	sts	0x0107, r1
    1352:	60 93 bb 00 	sts	0x00BB, r22
    1356:	84 e8       	ldi	r24, 0x84	; 132
    1358:	80 93 bc 00 	sts	0x00BC, r24
    135c:	80 91 bc 00 	lds	r24, 0x00BC
    1360:	87 ff       	sbrs	r24, 7
    1362:	fc cf       	rjmp	.-8      	; 0x135c <I2C_write_buf+0x8c>
    1364:	80 91 b9 00 	lds	r24, 0x00B9
    1368:	88 7f       	andi	r24, 0xF8	; 248
    136a:	88 32       	cpi	r24, 0x28	; 40
    136c:	49 f0       	breq	.+18     	; 0x1380 <I2C_write_buf+0xb0>
    136e:	84 e0       	ldi	r24, 0x04	; 4
    1370:	80 93 07 01 	sts	0x0107, r24
    1374:	84 e9       	ldi	r24, 0x94	; 148
    1376:	80 93 bc 00 	sts	0x00BC, r24
    137a:	80 91 07 01 	lds	r24, 0x0107
    137e:	08 95       	ret
    1380:	10 92 07 01 	sts	0x0107, r1
    1384:	f9 01       	movw	r30, r18
    1386:	94 e8       	ldi	r25, 0x84	; 132
    1388:	44 23       	and	r20, r20
    138a:	99 f0       	breq	.+38     	; 0x13b2 <I2C_write_buf+0xe2>
    138c:	81 91       	ld	r24, Z+
    138e:	80 93 bb 00 	sts	0x00BB, r24
    1392:	90 93 bc 00 	sts	0x00BC, r25
    1396:	80 91 bc 00 	lds	r24, 0x00BC
    139a:	87 ff       	sbrs	r24, 7
    139c:	fc cf       	rjmp	.-8      	; 0x1396 <I2C_write_buf+0xc6>
    139e:	80 91 b9 00 	lds	r24, 0x00B9
    13a2:	88 7f       	andi	r24, 0xF8	; 248
    13a4:	88 32       	cpi	r24, 0x28	; 40
    13a6:	19 f7       	brne	.-58     	; 0x136e <I2C_write_buf+0x9e>
    13a8:	41 50       	subi	r20, 0x01	; 1
    13aa:	10 92 07 01 	sts	0x0107, r1
    13ae:	41 11       	cpse	r20, r1
    13b0:	ed cf       	rjmp	.-38     	; 0x138c <I2C_write_buf+0xbc>
    13b2:	84 e9       	ldi	r24, 0x94	; 148
    13b4:	80 93 bc 00 	sts	0x00BC, r24
    13b8:	80 91 bc 00 	lds	r24, 0x00BC
    13bc:	84 ff       	sbrs	r24, 4
    13be:	fc cf       	rjmp	.-8      	; 0x13b8 <I2C_write_buf+0xe8>
    13c0:	80 e0       	ldi	r24, 0x00	; 0
    13c2:	08 95       	ret

000013c4 <I2C_read_buf>:
    13c4:	10 92 07 01 	sts	0x0107, r1
    13c8:	94 e4       	ldi	r25, 0x44	; 68
    13ca:	90 93 bc 00 	sts	0x00BC, r25
    13ce:	90 91 b9 00 	lds	r25, 0x00B9
    13d2:	93 70       	andi	r25, 0x03	; 3
    13d4:	90 93 b9 00 	sts	0x00B9, r25
    13d8:	90 e2       	ldi	r25, 0x20	; 32
    13da:	90 93 b8 00 	sts	0x00B8, r25
    13de:	94 ea       	ldi	r25, 0xA4	; 164
    13e0:	90 93 bc 00 	sts	0x00BC, r25
    13e4:	90 91 bc 00 	lds	r25, 0x00BC
    13e8:	97 ff       	sbrs	r25, 7
    13ea:	fc cf       	rjmp	.-8      	; 0x13e4 <I2C_read_buf+0x20>
    13ec:	90 91 b9 00 	lds	r25, 0x00B9
    13f0:	98 7f       	andi	r25, 0xF8	; 248
    13f2:	98 30       	cpi	r25, 0x08	; 8
    13f4:	19 f1       	breq	.+70     	; 0x143c <I2C_read_buf+0x78>
    13f6:	91 e0       	ldi	r25, 0x01	; 1
    13f8:	90 93 07 01 	sts	0x0107, r25
    13fc:	80 ff       	sbrs	r24, 0
    13fe:	1b c0       	rjmp	.+54     	; 0x1436 <I2C_read_buf+0x72>
    1400:	a0 e4       	ldi	r26, 0x40	; 64
    1402:	b0 e0       	ldi	r27, 0x00	; 0
    1404:	80 93 bb 00 	sts	0x00BB, r24
    1408:	94 e8       	ldi	r25, 0x84	; 132
    140a:	90 93 bc 00 	sts	0x00BC, r25
    140e:	90 91 bc 00 	lds	r25, 0x00BC
    1412:	97 ff       	sbrs	r25, 7
    1414:	fc cf       	rjmp	.-8      	; 0x140e <I2C_read_buf+0x4a>
    1416:	e0 91 b9 00 	lds	r30, 0x00B9
    141a:	e8 7f       	andi	r30, 0xF8	; 248
    141c:	f0 e0       	ldi	r31, 0x00	; 0
    141e:	ae 17       	cp	r26, r30
    1420:	bf 07       	cpc	r27, r31
    1422:	79 f0       	breq	.+30     	; 0x1442 <I2C_read_buf+0x7e>
    1424:	83 e0       	ldi	r24, 0x03	; 3
    1426:	80 93 07 01 	sts	0x0107, r24
    142a:	84 e9       	ldi	r24, 0x94	; 148
    142c:	80 93 bc 00 	sts	0x00BC, r24
    1430:	80 91 07 01 	lds	r24, 0x0107
    1434:	08 95       	ret
    1436:	a8 e1       	ldi	r26, 0x18	; 24
    1438:	b0 e0       	ldi	r27, 0x00	; 0
    143a:	e4 cf       	rjmp	.-56     	; 0x1404 <I2C_read_buf+0x40>
    143c:	10 92 07 01 	sts	0x0107, r1
    1440:	dd cf       	rjmp	.-70     	; 0x13fc <I2C_read_buf+0x38>
    1442:	10 92 07 01 	sts	0x0107, r1
    1446:	60 93 bb 00 	sts	0x00BB, r22
    144a:	94 e8       	ldi	r25, 0x84	; 132
    144c:	90 93 bc 00 	sts	0x00BC, r25
    1450:	90 91 bc 00 	lds	r25, 0x00BC
    1454:	97 ff       	sbrs	r25, 7
    1456:	fc cf       	rjmp	.-8      	; 0x1450 <I2C_read_buf+0x8c>
    1458:	90 91 b9 00 	lds	r25, 0x00B9
    145c:	98 7f       	andi	r25, 0xF8	; 248
    145e:	98 32       	cpi	r25, 0x28	; 40
    1460:	49 f0       	breq	.+18     	; 0x1474 <I2C_read_buf+0xb0>
    1462:	84 e0       	ldi	r24, 0x04	; 4
    1464:	80 93 07 01 	sts	0x0107, r24
    1468:	84 e9       	ldi	r24, 0x94	; 148
    146a:	80 93 bc 00 	sts	0x00BC, r24
    146e:	80 91 07 01 	lds	r24, 0x0107
    1472:	08 95       	ret
    1474:	10 92 07 01 	sts	0x0107, r1
    1478:	94 ea       	ldi	r25, 0xA4	; 164
    147a:	90 93 bc 00 	sts	0x00BC, r25
    147e:	90 91 bc 00 	lds	r25, 0x00BC
    1482:	97 ff       	sbrs	r25, 7
    1484:	fc cf       	rjmp	.-8      	; 0x147e <I2C_read_buf+0xba>
    1486:	90 91 b9 00 	lds	r25, 0x00B9
    148a:	98 7f       	andi	r25, 0xF8	; 248
    148c:	90 31       	cpi	r25, 0x10	; 16
    148e:	49 f0       	breq	.+18     	; 0x14a2 <I2C_read_buf+0xde>
    1490:	81 e0       	ldi	r24, 0x01	; 1
    1492:	80 93 07 01 	sts	0x0107, r24
    1496:	84 e9       	ldi	r24, 0x94	; 148
    1498:	80 93 bc 00 	sts	0x00BC, r24
    149c:	80 91 07 01 	lds	r24, 0x0107
    14a0:	08 95       	ret
    14a2:	10 92 07 01 	sts	0x0107, r1
    14a6:	8f 5f       	subi	r24, 0xFF	; 255
    14a8:	80 ff       	sbrs	r24, 0
    14aa:	52 c0       	rjmp	.+164    	; 0x1550 <I2C_read_buf+0x18c>
    14ac:	60 e4       	ldi	r22, 0x40	; 64
    14ae:	70 e0       	ldi	r23, 0x00	; 0
    14b0:	80 93 bb 00 	sts	0x00BB, r24
    14b4:	84 e8       	ldi	r24, 0x84	; 132
    14b6:	80 93 bc 00 	sts	0x00BC, r24
    14ba:	80 91 bc 00 	lds	r24, 0x00BC
    14be:	87 ff       	sbrs	r24, 7
    14c0:	fc cf       	rjmp	.-8      	; 0x14ba <I2C_read_buf+0xf6>
    14c2:	80 91 b9 00 	lds	r24, 0x00B9
    14c6:	88 7f       	andi	r24, 0xF8	; 248
    14c8:	90 e0       	ldi	r25, 0x00	; 0
    14ca:	68 17       	cp	r22, r24
    14cc:	79 07       	cpc	r23, r25
    14ce:	09 f0       	breq	.+2      	; 0x14d2 <I2C_read_buf+0x10e>
    14d0:	a9 cf       	rjmp	.-174    	; 0x1424 <I2C_read_buf+0x60>
    14d2:	10 92 07 01 	sts	0x0107, r1
    14d6:	41 50       	subi	r20, 0x01	; 1
    14d8:	f9 01       	movw	r30, r18
    14da:	53 e0       	ldi	r21, 0x03	; 3
    14dc:	34 e0       	ldi	r19, 0x04	; 4
    14de:	4f 3f       	cpi	r20, 0xFF	; 255
    14e0:	d1 f1       	breq	.+116    	; 0x1556 <I2C_read_buf+0x192>
    14e2:	21 e0       	ldi	r18, 0x01	; 1
    14e4:	41 11       	cpse	r20, r1
    14e6:	01 c0       	rjmp	.+2      	; 0x14ea <I2C_read_buf+0x126>
    14e8:	20 e0       	ldi	r18, 0x00	; 0
    14ea:	82 2f       	mov	r24, r18
    14ec:	90 e0       	ldi	r25, 0x00	; 0
    14ee:	00 24       	eor	r0, r0
    14f0:	96 95       	lsr	r25
    14f2:	87 95       	ror	r24
    14f4:	07 94       	ror	r0
    14f6:	96 95       	lsr	r25
    14f8:	87 95       	ror	r24
    14fa:	07 94       	ror	r0
    14fc:	98 2f       	mov	r25, r24
    14fe:	80 2d       	mov	r24, r0
    1500:	84 68       	ori	r24, 0x84	; 132
    1502:	80 93 bc 00 	sts	0x00BC, r24
    1506:	80 91 bc 00 	lds	r24, 0x00BC
    150a:	87 ff       	sbrs	r24, 7
    150c:	fc cf       	rjmp	.-8      	; 0x1506 <I2C_read_buf+0x142>
    150e:	80 91 b9 00 	lds	r24, 0x00B9
    1512:	88 7f       	andi	r24, 0xF8	; 248
    1514:	22 23       	and	r18, r18
    1516:	89 f0       	breq	.+34     	; 0x153a <I2C_read_buf+0x176>
    1518:	80 35       	cpi	r24, 0x50	; 80
    151a:	a9 f0       	breq	.+42     	; 0x1546 <I2C_read_buf+0x182>
    151c:	30 93 07 01 	sts	0x0107, r19
    1520:	80 e0       	ldi	r24, 0x00	; 0
    1522:	81 93       	st	Z+, r24
    1524:	41 50       	subi	r20, 0x01	; 1
    1526:	80 91 07 01 	lds	r24, 0x0107
    152a:	88 23       	and	r24, r24
    152c:	c1 f2       	breq	.-80     	; 0x14de <I2C_read_buf+0x11a>
    152e:	84 e9       	ldi	r24, 0x94	; 148
    1530:	80 93 bc 00 	sts	0x00BC, r24
    1534:	80 91 07 01 	lds	r24, 0x0107
    1538:	08 95       	ret
    153a:	88 35       	cpi	r24, 0x58	; 88
    153c:	21 f0       	breq	.+8      	; 0x1546 <I2C_read_buf+0x182>
    153e:	50 93 07 01 	sts	0x0107, r21
    1542:	80 e0       	ldi	r24, 0x00	; 0
    1544:	ee cf       	rjmp	.-36     	; 0x1522 <I2C_read_buf+0x15e>
    1546:	10 92 07 01 	sts	0x0107, r1
    154a:	80 91 bb 00 	lds	r24, 0x00BB
    154e:	e9 cf       	rjmp	.-46     	; 0x1522 <I2C_read_buf+0x15e>
    1550:	68 e1       	ldi	r22, 0x18	; 24
    1552:	70 e0       	ldi	r23, 0x00	; 0
    1554:	ad cf       	rjmp	.-166    	; 0x14b0 <I2C_read_buf+0xec>
    1556:	84 e9       	ldi	r24, 0x94	; 148
    1558:	80 93 bc 00 	sts	0x00BC, r24
    155c:	80 91 bc 00 	lds	r24, 0x00BC
    1560:	84 ff       	sbrs	r24, 4
    1562:	fc cf       	rjmp	.-8      	; 0x155c <I2C_read_buf+0x198>
    1564:	80 e0       	ldi	r24, 0x00	; 0
    1566:	08 95       	ret

00001568 <main>:
    1568:	cf 93       	push	r28
    156a:	df 93       	push	r29
    156c:	1f 92       	push	r1
    156e:	cd b7       	in	r28, 0x3d	; 61
    1570:	de b7       	in	r29, 0x3e	; 62
    1572:	19 82       	std	Y+1, r1	; 0x01
    1574:	a5 dc       	rcall	.-1718   	; 0xec0 <RelayInit>
    1576:	9f dc       	rcall	.-1730   	; 0xeb6 <RegistersInit>
    1578:	64 dc       	rcall	.-1848   	; 0xe42 <Timer2Init>
    157a:	80 91 07 01 	lds	r24, 0x0107
    157e:	81 11       	cpse	r24, r1
    1580:	3f c0       	rjmp	.+126    	; 0x1600 <main+0x98>
    1582:	58 98       	cbi	0x0b, 0	; 11
    1584:	5c 98       	cbi	0x0b, 4	; 11
    1586:	5c 9a       	sbi	0x0b, 4	; 11
    1588:	80 91 06 01 	lds	r24, 0x0106
    158c:	81 11       	cpse	r24, r1
    158e:	3f c0       	rjmp	.+126    	; 0x160e <main+0xa6>
    1590:	58 98       	cbi	0x0b, 0	; 11
    1592:	5c 98       	cbi	0x0b, 4	; 11
    1594:	5c 9a       	sbi	0x0b, 4	; 11
    1596:	80 91 05 01 	lds	r24, 0x0105
    159a:	81 11       	cpse	r24, r1
    159c:	3f c0       	rjmp	.+126    	; 0x161c <main+0xb4>
    159e:	58 98       	cbi	0x0b, 0	; 11
    15a0:	5c 98       	cbi	0x0b, 4	; 11
    15a2:	5c 9a       	sbi	0x0b, 4	; 11
    15a4:	80 91 04 01 	lds	r24, 0x0104
    15a8:	81 11       	cpse	r24, r1
    15aa:	3f c0       	rjmp	.+126    	; 0x162a <main+0xc2>
    15ac:	58 98       	cbi	0x0b, 0	; 11
    15ae:	5c 98       	cbi	0x0b, 4	; 11
    15b0:	5c 9a       	sbi	0x0b, 4	; 11
    15b2:	80 91 03 01 	lds	r24, 0x0103
    15b6:	81 11       	cpse	r24, r1
    15b8:	3f c0       	rjmp	.+126    	; 0x1638 <main+0xd0>
    15ba:	58 98       	cbi	0x0b, 0	; 11
    15bc:	5c 98       	cbi	0x0b, 4	; 11
    15be:	5c 9a       	sbi	0x0b, 4	; 11
    15c0:	80 91 02 01 	lds	r24, 0x0102
    15c4:	81 11       	cpse	r24, r1
    15c6:	3f c0       	rjmp	.+126    	; 0x1646 <main+0xde>
    15c8:	58 98       	cbi	0x0b, 0	; 11
    15ca:	5c 98       	cbi	0x0b, 4	; 11
    15cc:	5c 9a       	sbi	0x0b, 4	; 11
    15ce:	80 91 01 01 	lds	r24, 0x0101
    15d2:	81 11       	cpse	r24, r1
    15d4:	3f c0       	rjmp	.+126    	; 0x1654 <main+0xec>
    15d6:	58 98       	cbi	0x0b, 0	; 11
    15d8:	5c 98       	cbi	0x0b, 4	; 11
    15da:	5c 9a       	sbi	0x0b, 4	; 11
    15dc:	80 91 00 01 	lds	r24, 0x0100
    15e0:	88 23       	and	r24, r24
    15e2:	09 f4       	brne	.+2      	; 0x15e6 <main+0x7e>
    15e4:	3e c0       	rjmp	.+124    	; 0x1662 <main+0xfa>
    15e6:	58 9a       	sbi	0x0b, 0	; 11
    15e8:	5c 98       	cbi	0x0b, 4	; 11
    15ea:	5c 9a       	sbi	0x0b, 4	; 11
    15ec:	5d 9a       	sbi	0x0b, 5	; 11
    15ee:	5d 98       	cbi	0x0b, 5	; 11
    15f0:	78 94       	sei
    15f2:	be 01       	movw	r22, r28
    15f4:	6f 5f       	subi	r22, 0xFF	; 255
    15f6:	7f 4f       	sbci	r23, 0xFF	; 255
    15f8:	88 e0       	ldi	r24, 0x08	; 8
    15fa:	91 e0       	ldi	r25, 0x01	; 1
    15fc:	8b d0       	rcall	.+278    	; 0x1714 <Test_Relay_X0>
    15fe:	f9 cf       	rjmp	.-14     	; 0x15f2 <main+0x8a>
    1600:	58 9a       	sbi	0x0b, 0	; 11
    1602:	5c 98       	cbi	0x0b, 4	; 11
    1604:	5c 9a       	sbi	0x0b, 4	; 11
    1606:	80 91 06 01 	lds	r24, 0x0106
    160a:	88 23       	and	r24, r24
    160c:	09 f2       	breq	.-126    	; 0x1590 <main+0x28>
    160e:	58 9a       	sbi	0x0b, 0	; 11
    1610:	5c 98       	cbi	0x0b, 4	; 11
    1612:	5c 9a       	sbi	0x0b, 4	; 11
    1614:	80 91 05 01 	lds	r24, 0x0105
    1618:	88 23       	and	r24, r24
    161a:	09 f2       	breq	.-126    	; 0x159e <main+0x36>
    161c:	58 9a       	sbi	0x0b, 0	; 11
    161e:	5c 98       	cbi	0x0b, 4	; 11
    1620:	5c 9a       	sbi	0x0b, 4	; 11
    1622:	80 91 04 01 	lds	r24, 0x0104
    1626:	88 23       	and	r24, r24
    1628:	09 f2       	breq	.-126    	; 0x15ac <main+0x44>
    162a:	58 9a       	sbi	0x0b, 0	; 11
    162c:	5c 98       	cbi	0x0b, 4	; 11
    162e:	5c 9a       	sbi	0x0b, 4	; 11
    1630:	80 91 03 01 	lds	r24, 0x0103
    1634:	88 23       	and	r24, r24
    1636:	09 f2       	breq	.-126    	; 0x15ba <main+0x52>
    1638:	58 9a       	sbi	0x0b, 0	; 11
    163a:	5c 98       	cbi	0x0b, 4	; 11
    163c:	5c 9a       	sbi	0x0b, 4	; 11
    163e:	80 91 02 01 	lds	r24, 0x0102
    1642:	88 23       	and	r24, r24
    1644:	09 f2       	breq	.-126    	; 0x15c8 <main+0x60>
    1646:	58 9a       	sbi	0x0b, 0	; 11
    1648:	5c 98       	cbi	0x0b, 4	; 11
    164a:	5c 9a       	sbi	0x0b, 4	; 11
    164c:	80 91 01 01 	lds	r24, 0x0101
    1650:	88 23       	and	r24, r24
    1652:	09 f2       	breq	.-126    	; 0x15d6 <main+0x6e>
    1654:	58 9a       	sbi	0x0b, 0	; 11
    1656:	5c 98       	cbi	0x0b, 4	; 11
    1658:	5c 9a       	sbi	0x0b, 4	; 11
    165a:	80 91 00 01 	lds	r24, 0x0100
    165e:	81 11       	cpse	r24, r1
    1660:	c2 cf       	rjmp	.-124    	; 0x15e6 <main+0x7e>
    1662:	58 98       	cbi	0x0b, 0	; 11
    1664:	c1 cf       	rjmp	.-126    	; 0x15e8 <main+0x80>

00001666 <__vector_14>:
    1666:	1f 92       	push	r1
    1668:	0f 92       	push	r0
    166a:	0f b6       	in	r0, 0x3f	; 63
    166c:	0f 92       	push	r0
    166e:	11 24       	eor	r1, r1
    1670:	0f 90       	pop	r0
    1672:	0f be       	out	0x3f, r0	; 63
    1674:	0f 90       	pop	r0
    1676:	1f 90       	pop	r1
    1678:	18 95       	reti

0000167a <__vector_7>:
    167a:	1f 92       	push	r1
    167c:	0f 92       	push	r0
    167e:	0f b6       	in	r0, 0x3f	; 63
    1680:	0f 92       	push	r0
    1682:	11 24       	eor	r1, r1
    1684:	2f 93       	push	r18
    1686:	3f 93       	push	r19
    1688:	4f 93       	push	r20
    168a:	5f 93       	push	r21
    168c:	6f 93       	push	r22
    168e:	7f 93       	push	r23
    1690:	8f 93       	push	r24
    1692:	9f 93       	push	r25
    1694:	af 93       	push	r26
    1696:	bf 93       	push	r27
    1698:	ef 93       	push	r30
    169a:	ff 93       	push	r31
    169c:	88 e0       	ldi	r24, 0x08	; 8
    169e:	91 e0       	ldi	r25, 0x01	; 1
    16a0:	ba dc       	rcall	.-1676   	; 0x1016 <RelayTryClickMS>
    16a2:	ff 91       	pop	r31
    16a4:	ef 91       	pop	r30
    16a6:	bf 91       	pop	r27
    16a8:	af 91       	pop	r26
    16aa:	9f 91       	pop	r25
    16ac:	8f 91       	pop	r24
    16ae:	7f 91       	pop	r23
    16b0:	6f 91       	pop	r22
    16b2:	5f 91       	pop	r21
    16b4:	4f 91       	pop	r20
    16b6:	3f 91       	pop	r19
    16b8:	2f 91       	pop	r18
    16ba:	0f 90       	pop	r0
    16bc:	0f be       	out	0x3f, r0	; 63
    16be:	0f 90       	pop	r0
    16c0:	1f 90       	pop	r1
    16c2:	18 95       	reti

000016c4 <__vector_21>:
    16c4:	1f 92       	push	r1
    16c6:	0f 92       	push	r0
    16c8:	0f b6       	in	r0, 0x3f	; 63
    16ca:	0f 92       	push	r0
    16cc:	11 24       	eor	r1, r1
    16ce:	0f 90       	pop	r0
    16d0:	0f be       	out	0x3f, r0	; 63
    16d2:	0f 90       	pop	r0
    16d4:	1f 90       	pop	r1
    16d6:	18 95       	reti

000016d8 <__vector_3>:
    16d8:	1f 92       	push	r1
    16da:	0f 92       	push	r0
    16dc:	0f b6       	in	r0, 0x3f	; 63
    16de:	0f 92       	push	r0
    16e0:	11 24       	eor	r1, r1
    16e2:	0f 90       	pop	r0
    16e4:	0f be       	out	0x3f, r0	; 63
    16e6:	0f 90       	pop	r0
    16e8:	1f 90       	pop	r1
    16ea:	18 95       	reti

000016ec <__vector_4>:
    16ec:	1f 92       	push	r1
    16ee:	0f 92       	push	r0
    16f0:	0f b6       	in	r0, 0x3f	; 63
    16f2:	0f 92       	push	r0
    16f4:	11 24       	eor	r1, r1
    16f6:	0f 90       	pop	r0
    16f8:	0f be       	out	0x3f, r0	; 63
    16fa:	0f 90       	pop	r0
    16fc:	1f 90       	pop	r1
    16fe:	18 95       	reti

00001700 <__vector_5>:
    1700:	1f 92       	push	r1
    1702:	0f 92       	push	r0
    1704:	0f b6       	in	r0, 0x3f	; 63
    1706:	0f 92       	push	r0
    1708:	11 24       	eor	r1, r1
    170a:	0f 90       	pop	r0
    170c:	0f be       	out	0x3f, r0	; 63
    170e:	0f 90       	pop	r0
    1710:	1f 90       	pop	r1
    1712:	18 95       	reti

00001714 <Test_Relay_X0>:
    1714:	0f 93       	push	r16
    1716:	1f 93       	push	r17
    1718:	cf 93       	push	r28
    171a:	df 93       	push	r29
    171c:	ec 01       	movw	r28, r24
    171e:	8b 01       	movw	r16, r22
    1720:	fb 01       	movw	r30, r22
    1722:	80 81       	ld	r24, Z
    1724:	98 2f       	mov	r25, r24
    1726:	91 70       	andi	r25, 0x01	; 1
    1728:	90 93 00 01 	sts	0x0100, r25
    172c:	86 95       	lsr	r24
    172e:	98 2f       	mov	r25, r24
    1730:	91 70       	andi	r25, 0x01	; 1
    1732:	90 93 01 01 	sts	0x0101, r25
    1736:	86 95       	lsr	r24
    1738:	98 2f       	mov	r25, r24
    173a:	91 70       	andi	r25, 0x01	; 1
    173c:	90 93 02 01 	sts	0x0102, r25
    1740:	86 95       	lsr	r24
    1742:	98 2f       	mov	r25, r24
    1744:	91 70       	andi	r25, 0x01	; 1
    1746:	90 93 03 01 	sts	0x0103, r25
    174a:	86 95       	lsr	r24
    174c:	98 2f       	mov	r25, r24
    174e:	91 70       	andi	r25, 0x01	; 1
    1750:	90 93 04 01 	sts	0x0104, r25
    1754:	86 95       	lsr	r24
    1756:	98 2f       	mov	r25, r24
    1758:	91 70       	andi	r25, 0x01	; 1
    175a:	90 93 05 01 	sts	0x0105, r25
    175e:	86 95       	lsr	r24
    1760:	98 2f       	mov	r25, r24
    1762:	91 70       	andi	r25, 0x01	; 1
    1764:	90 93 06 01 	sts	0x0106, r25
    1768:	86 95       	lsr	r24
    176a:	80 93 07 01 	sts	0x0107, r24
    176e:	81 11       	cpse	r24, r1
    1770:	6a c0       	rjmp	.+212    	; 0x1846 <Test_Relay_X0+0x132>
    1772:	58 98       	cbi	0x0b, 0	; 11
    1774:	5c 98       	cbi	0x0b, 4	; 11
    1776:	5c 9a       	sbi	0x0b, 4	; 11
    1778:	80 91 06 01 	lds	r24, 0x0106
    177c:	81 11       	cpse	r24, r1
    177e:	61 c0       	rjmp	.+194    	; 0x1842 <Test_Relay_X0+0x12e>
    1780:	58 98       	cbi	0x0b, 0	; 11
    1782:	5c 98       	cbi	0x0b, 4	; 11
    1784:	5c 9a       	sbi	0x0b, 4	; 11
    1786:	80 91 05 01 	lds	r24, 0x0105
    178a:	81 11       	cpse	r24, r1
    178c:	58 c0       	rjmp	.+176    	; 0x183e <Test_Relay_X0+0x12a>
    178e:	58 98       	cbi	0x0b, 0	; 11
    1790:	5c 98       	cbi	0x0b, 4	; 11
    1792:	5c 9a       	sbi	0x0b, 4	; 11
    1794:	80 91 04 01 	lds	r24, 0x0104
    1798:	81 11       	cpse	r24, r1
    179a:	4f c0       	rjmp	.+158    	; 0x183a <Test_Relay_X0+0x126>
    179c:	58 98       	cbi	0x0b, 0	; 11
    179e:	5c 98       	cbi	0x0b, 4	; 11
    17a0:	5c 9a       	sbi	0x0b, 4	; 11
    17a2:	80 91 03 01 	lds	r24, 0x0103
    17a6:	81 11       	cpse	r24, r1
    17a8:	46 c0       	rjmp	.+140    	; 0x1836 <Test_Relay_X0+0x122>
    17aa:	58 98       	cbi	0x0b, 0	; 11
    17ac:	5c 98       	cbi	0x0b, 4	; 11
    17ae:	5c 9a       	sbi	0x0b, 4	; 11
    17b0:	80 91 02 01 	lds	r24, 0x0102
    17b4:	81 11       	cpse	r24, r1
    17b6:	3d c0       	rjmp	.+122    	; 0x1832 <Test_Relay_X0+0x11e>
    17b8:	58 98       	cbi	0x0b, 0	; 11
    17ba:	5c 98       	cbi	0x0b, 4	; 11
    17bc:	5c 9a       	sbi	0x0b, 4	; 11
    17be:	80 91 01 01 	lds	r24, 0x0101
    17c2:	81 11       	cpse	r24, r1
    17c4:	34 c0       	rjmp	.+104    	; 0x182e <Test_Relay_X0+0x11a>
    17c6:	58 98       	cbi	0x0b, 0	; 11
    17c8:	5c 98       	cbi	0x0b, 4	; 11
    17ca:	5c 9a       	sbi	0x0b, 4	; 11
    17cc:	80 91 00 01 	lds	r24, 0x0100
    17d0:	88 23       	and	r24, r24
    17d2:	59 f1       	breq	.+86     	; 0x182a <Test_Relay_X0+0x116>
    17d4:	58 9a       	sbi	0x0b, 0	; 11
    17d6:	5c 98       	cbi	0x0b, 4	; 11
    17d8:	5c 9a       	sbi	0x0b, 4	; 11
    17da:	5d 9a       	sbi	0x0b, 5	; 11
    17dc:	5d 98       	cbi	0x0b, 5	; 11
    17de:	ff ef       	ldi	r31, 0xFF	; 255
    17e0:	29 e6       	ldi	r18, 0x69	; 105
    17e2:	88 e1       	ldi	r24, 0x18	; 24
    17e4:	f1 50       	subi	r31, 0x01	; 1
    17e6:	20 40       	sbci	r18, 0x00	; 0
    17e8:	80 40       	sbci	r24, 0x00	; 0
    17ea:	e1 f7       	brne	.-8      	; 0x17e4 <Test_Relay_X0+0xd0>
    17ec:	00 c0       	rjmp	.+0      	; 0x17ee <Test_Relay_X0+0xda>
    17ee:	00 00       	nop
    17f0:	40 e0       	ldi	r20, 0x00	; 0
    17f2:	f8 01       	movw	r30, r16
    17f4:	60 81       	ld	r22, Z
    17f6:	ce 01       	movw	r24, r28
    17f8:	65 db       	rcall	.-2358   	; 0xec4 <RelayStartClicking>
    17fa:	8b 85       	ldd	r24, Y+11	; 0x0b
    17fc:	81 11       	cpse	r24, r1
    17fe:	fd cf       	rjmp	.-6      	; 0x17fa <Test_Relay_X0+0xe6>
    1800:	f8 01       	movw	r30, r16
    1802:	80 81       	ld	r24, Z
    1804:	8f 5f       	subi	r24, 0xFF	; 255
    1806:	88 31       	cpi	r24, 0x18	; 24
    1808:	00 f1       	brcs	.+64     	; 0x184a <Test_Relay_X0+0x136>
    180a:	f8 01       	movw	r30, r16
    180c:	10 82       	st	Z, r1
    180e:	ff ef       	ldi	r31, 0xFF	; 255
    1810:	23 ed       	ldi	r18, 0xD3	; 211
    1812:	80 e3       	ldi	r24, 0x30	; 48
    1814:	f1 50       	subi	r31, 0x01	; 1
    1816:	20 40       	sbci	r18, 0x00	; 0
    1818:	80 40       	sbci	r24, 0x00	; 0
    181a:	e1 f7       	brne	.-8      	; 0x1814 <Test_Relay_X0+0x100>
    181c:	00 c0       	rjmp	.+0      	; 0x181e <Test_Relay_X0+0x10a>
    181e:	00 00       	nop
    1820:	df 91       	pop	r29
    1822:	cf 91       	pop	r28
    1824:	1f 91       	pop	r17
    1826:	0f 91       	pop	r16
    1828:	08 95       	ret
    182a:	58 98       	cbi	0x0b, 0	; 11
    182c:	d4 cf       	rjmp	.-88     	; 0x17d6 <Test_Relay_X0+0xc2>
    182e:	58 9a       	sbi	0x0b, 0	; 11
    1830:	cb cf       	rjmp	.-106    	; 0x17c8 <Test_Relay_X0+0xb4>
    1832:	58 9a       	sbi	0x0b, 0	; 11
    1834:	c2 cf       	rjmp	.-124    	; 0x17ba <Test_Relay_X0+0xa6>
    1836:	58 9a       	sbi	0x0b, 0	; 11
    1838:	b9 cf       	rjmp	.-142    	; 0x17ac <Test_Relay_X0+0x98>
    183a:	58 9a       	sbi	0x0b, 0	; 11
    183c:	b0 cf       	rjmp	.-160    	; 0x179e <Test_Relay_X0+0x8a>
    183e:	58 9a       	sbi	0x0b, 0	; 11
    1840:	a7 cf       	rjmp	.-178    	; 0x1790 <Test_Relay_X0+0x7c>
    1842:	58 9a       	sbi	0x0b, 0	; 11
    1844:	9e cf       	rjmp	.-196    	; 0x1782 <Test_Relay_X0+0x6e>
    1846:	58 9a       	sbi	0x0b, 0	; 11
    1848:	95 cf       	rjmp	.-214    	; 0x1774 <Test_Relay_X0+0x60>
    184a:	80 83       	st	Z, r24
    184c:	e0 cf       	rjmp	.-64     	; 0x180e <Test_Relay_X0+0xfa>

0000184e <Test_Y>:
    184e:	fc 01       	movw	r30, r24
    1850:	80 81       	ld	r24, Z
    1852:	81 11       	cpse	r24, r1
    1854:	14 c0       	rjmp	.+40     	; 0x187e <Test_Y+0x30>
    1856:	58 9a       	sbi	0x0b, 0	; 11
    1858:	5c 98       	cbi	0x0b, 4	; 11
    185a:	5c 9a       	sbi	0x0b, 4	; 11
    185c:	5d 9a       	sbi	0x0b, 5	; 11
    185e:	5d 98       	cbi	0x0b, 5	; 11
    1860:	2f ef       	ldi	r18, 0xFF	; 255
    1862:	89 e6       	ldi	r24, 0x69	; 105
    1864:	98 e1       	ldi	r25, 0x18	; 24
    1866:	21 50       	subi	r18, 0x01	; 1
    1868:	80 40       	sbci	r24, 0x00	; 0
    186a:	90 40       	sbci	r25, 0x00	; 0
    186c:	e1 f7       	brne	.-8      	; 0x1866 <Test_Y+0x18>
    186e:	00 c0       	rjmp	.+0      	; 0x1870 <Test_Y+0x22>
    1870:	00 00       	nop
    1872:	80 81       	ld	r24, Z
    1874:	8f 5f       	subi	r24, 0xFF	; 255
    1876:	88 30       	cpi	r24, 0x08	; 8
    1878:	20 f0       	brcs	.+8      	; 0x1882 <Test_Y+0x34>
    187a:	10 82       	st	Z, r1
    187c:	08 95       	ret
    187e:	58 98       	cbi	0x0b, 0	; 11
    1880:	eb cf       	rjmp	.-42     	; 0x1858 <Test_Y+0xa>
    1882:	80 83       	st	Z, r24
    1884:	08 95       	ret

00001886 <strcpy_P>:
    1886:	fb 01       	movw	r30, r22
    1888:	dc 01       	movw	r26, r24
    188a:	05 90       	lpm	r0, Z+
    188c:	0d 92       	st	X+, r0
    188e:	00 20       	and	r0, r0
    1890:	e1 f7       	brne	.-8      	; 0x188a <strcpy_P+0x4>
    1892:	08 95       	ret

00001894 <_exit>:
    1894:	f8 94       	cli

00001896 <__stop_program>:
    1896:	ff cf       	rjmp	.-2      	; 0x1896 <__stop_program>
